; generated by Component: ARM Compiler 5.06 update 6 (build 750) Tool: ArmCC [4d3637]
; commandline ArmCC [--c99 --split_sections --debug -c --asm --interleave -ostm32nes\cpu.o --depend=stm32nes\cpu.d --cpu=Cortex-M4.fp.sp --apcs=interwork -O3 -Otime --diag_suppress=9931 -I../Inc -I../Drivers/STM32F4xx_HAL_Driver/Inc -I../Drivers/CMSIS/Device/ST/STM32F4xx/Include -I../Drivers/CMSIS/Include -I../Drivers/STM32F4xx_HAL_Driver/Inc/Legacy -I.\RTE\_stm32nes -ID:\Keil_v5\Arm\Packs\ARM\CMSIS\5.8.0\CMSIS\Core\Include -ID:\Keil_v5\Arm\Packs\Keil\STM32F4xx_DFP\2.14.0\Drivers\CMSIS\Device\ST\STM32F4xx\Include -D__UVISION_VERSION=531 -D_RTE_ -DSTM32F429xx -D_RTE_ -DUSE_FULL_LL_DRIVER -DSTM32F429xx -DUSE_HAL_DRIVER --omf_browse=stm32nes\cpu.crf ..\Src\cpu.c]
                          THUMB

                          AREA ||i.cpu_abs||, CODE, READONLY, ALIGN=2

                  cpu_abs PROC
;;;16     /* ABS */   
;;;17     static inline uint16_t cpu_abs(void)   
000000  4902              LDR      r1,|L1.12|
;;;18     {    
;;;19     	uint16_t savepc;
;;;20       	savepc = cpu_getoperand16();
;;;21     
;;;22       	PC++;   
000002  89ca              LDRH     r2,[r1,#0xe]  ; PC
000004  8a08              LDRH     r0,[r1,#0x10]         ;20  ; operand16
000006  1c92              ADDS     r2,r2,#2
;;;23       	PC++;   
000008  81ca              STRH     r2,[r1,#0xe]
;;;24     
;;;25      	return savepc;
;;;26     }   
00000a  4770              BX       lr
;;;27     
                          ENDP

                  |L1.12|
                          DCD      ||.data||

                          AREA ||i.cpu_absx||, CODE, READONLY, ALIGN=2

                  cpu_absx PROC
;;;54     /* ABS,X */   
;;;55     static inline uint16_t cpu_absx(void)   
000000  480c              LDR      r0,|L2.52|
;;;56     {   
;;;57     	uint16_t savepc;
;;;58       	savepc = cpu_getoperand16(); 
;;;59     
;;;60       	PC++;   
000002  89c1              LDRH     r1,[r0,#0xe]  ; PC
000004  8a02              LDRH     r2,[r0,#0x10]         ;58  ; operand16
000006  1c89              ADDS     r1,r1,#2
;;;61       	PC++;   
000008  81c1              STRH     r1,[r0,#0xe]
;;;62       	if (opcodeticks[opcode]==4)   
00000a  490b              LDR      r1,|L2.56|
00000c  79c3              LDRB     r3,[r0,#7]  ; opcode
00000e  f851c023          LDR      r12,[r1,r3,LSL #2]
000012  4601              MOV      r1,r0                 ;58
000014  f1bc0f04          CMP      r12,#4
;;;63       		if ((savepc>>8) != ((savepc+X)>>8))   
000018  78cb              LDRB     r3,[r1,#3]
00001a  8a09              LDRH     r1,[r1,#0x10]         ;58
00001c  4419              ADD      r1,r1,r3
00001e  d106              BNE      |L2.46|
000020  0a12              LSRS     r2,r2,#8
000022  ebb22f11          CMP      r2,r1,LSR #8
000026  d002              BEQ      |L2.46|
;;;64       			cpu_clockticks++;   
000028  6c02              LDR      r2,[r0,#0x40]  ; cpu_clockticks
00002a  1c52              ADDS     r2,r2,#1
00002c  6402              STR      r2,[r0,#0x40]  ; cpu_clockticks
                  |L2.46|
;;;65     	savepc += X;   
00002e  b288              UXTH     r0,r1
;;;66     	return savepc;
;;;67     }   
000030  4770              BX       lr
;;;68     
                          ENDP

000032  0000              DCW      0x0000
                  |L2.52|
                          DCD      ||.data||
                  |L2.56|
                          DCD      ||.constdata||

                          AREA ||i.cpu_absy||, CODE, READONLY, ALIGN=2

                  cpu_absy PROC
;;;69     /* ABS,Y */   
;;;70     static inline uint16_t cpu_absy(void)   
000000  480c              LDR      r0,|L3.52|
;;;71     {    
;;;72     	uint16_t savepc;
;;;73     	savepc =  cpu_getoperand16();
;;;74     
;;;75     	PC++;   
000002  89c1              LDRH     r1,[r0,#0xe]  ; PC
000004  8a02              LDRH     r2,[r0,#0x10]         ;73  ; operand16
000006  1c89              ADDS     r1,r1,#2
;;;76     	PC++;   
000008  81c1              STRH     r1,[r0,#0xe]
;;;77     
;;;78     	if (opcodeticks[opcode]==4)   
00000a  490b              LDR      r1,|L3.56|
00000c  79c3              LDRB     r3,[r0,#7]  ; opcode
00000e  f851c023          LDR      r12,[r1,r3,LSL #2]
000012  4601              MOV      r1,r0                 ;73
000014  f1bc0f04          CMP      r12,#4
;;;79     		if ((savepc>>8) != ((savepc+Y)>>8))   
000018  790b              LDRB     r3,[r1,#4]
00001a  8a09              LDRH     r1,[r1,#0x10]         ;73
00001c  4419              ADD      r1,r1,r3
00001e  d106              BNE      |L3.46|
000020  0a12              LSRS     r2,r2,#8
000022  ebb22f11          CMP      r2,r1,LSR #8
000026  d002              BEQ      |L3.46|
;;;80     			cpu_clockticks++;   
000028  6c02              LDR      r2,[r0,#0x40]  ; cpu_clockticks
00002a  1c52              ADDS     r2,r2,#1
00002c  6402              STR      r2,[r0,#0x40]  ; cpu_clockticks
                  |L3.46|
;;;81     	savepc += Y;   
00002e  b288              UXTH     r0,r1
;;;82     	return savepc;
;;;83     }   
000030  4770              BX       lr
;;;84     
                          ENDP

000032  0000              DCW      0x0000
                  |L3.52|
                          DCD      ||.data||
                  |L3.56|
                          DCD      ||.constdata||

                          AREA ||i.cpu_adc||, CODE, READONLY, ALIGN=2

                  cpu_adc PROC
;;;192    /* SBC - Subtract with Carry */
;;;193    static inline void cpu_adc(CpuAdrMode adrmode)   
000000  b510              PUSH     {r4,lr}
;;;194    {   
;;;195    	uint16_t savepc = adrmode();   
000002  4780              BLX      r0
;;;196    	uint16_t value = cpu_getmemory(savepc);   
000004  f7fffffe          BL       cpu_getmemory
000008  b283              UXTH     r3,r0
;;;197    	uint16_t temp = (uint16_t)A + (uint16_t)value + (uint16_t)GetFlag(C_FLAG);
00000a  481a              LDR      r0,|L4.116|
00000c  7882              LDRB     r2,[r0,#2]  ; A
00000e  f890c005          LDRB     r12,[r0,#5]  ; P
000012  18d1              ADDS     r1,r2,r3
000014  f00c0401          AND      r4,r12,#1
000018  4421              ADD      r1,r1,r4
00001a  b289              UXTH     r1,r1
;;;198    
;;;199    	/* The carry flag out exists in the high byte bit 0 */
;;;200    	SetFlag(C_FLAG, temp > 255);
00001c  29ff              CMP      r1,#0xff
00001e  bf8c              ITE      HI
000020  f04c0c01          ORRHI    r12,r12,#1
000024  f02c0c01          BICLS    r12,r12,#1
000028  f880c005          STRB     r12,[r0,#5]
;;;201    
;;;202    	/* The Zero flag is set if the result is 0 */
;;;203    	SetFlag(Z_FLAG, (temp & 0x00FF) == 0);
00002c  f0110fff          TST      r1,#0xff
000030  f00c0cff          AND      r12,r12,#0xff
000034  bf0c              ITE      EQ
000036  f04c0c02          ORREQ    r12,r12,#2
00003a  f02c0c02          BICNE    r12,r12,#2
00003e  f880c005          STRB     r12,[r0,#5]
;;;204    
;;;205    	/* The signed Overflow flag is set based on all that up there */
;;;206    	SetFlag(V_FLAG, (~((uint16_t)A ^ (uint16_t)value) & ((uint16_t)A ^ (uint16_t)temp)) & 0x0080);
000042  ea820c01          EOR      r12,r2,r1
000046  405a              EORS     r2,r2,r3
000048  ea2c0202          BIC      r2,r12,r2
00004c  f0120f80          TST      r2,#0x80
000050  7942              LDRB     r2,[r0,#5]  ; P
000052  bf14              ITE      NE
000054  f0420240          ORRNE    r2,r2,#0x40
000058  f0220240          BICEQ    r2,r2,#0x40
00005c  7142              STRB     r2,[r0,#5]
;;;207    
;;;208    	/* The negative flag is set to the most significant bit of the result */
;;;209    	SetFlag(N_FLAG, temp & 0x0080);
00005e  f0110f80          TST      r1,#0x80
000062  b2d2              UXTB     r2,r2
000064  bf14              ITE      NE
000066  f0420280          ORRNE    r2,r2,#0x80
00006a  f0220280          BICEQ    r2,r2,#0x80
00006e  7142              STRB     r2,[r0,#5]
;;;210    
;;;211    	/* Load the result into the accumulator */
;;;212    	A = temp & 0x00FF;
000070  7081              STRB     r1,[r0,#2]
;;;213    
;;;214    #ifdef TODO_ENABLE
;;;215    	if( (P & 0x08) == 0)
;;;216    	{
;;;217    		cpu_clockticks++;
;;;218    	}
;;;219    #endif
;;;220    }  
000072  bd10              POP      {r4,pc}
;;;221    
                          ENDP

                  |L4.116|
                          DCD      ||.data||

                          AREA ||i.cpu_and||, CODE, READONLY, ALIGN=2

                  cpu_and PROC
;;;152    /* AND - Locial AND */
;;;153    static inline void cpu_and(CpuAdrMode adrmode)   
000000  b510              PUSH     {r4,lr}
;;;154    {   
;;;155    	uint16_t savepc = adrmode();   
000002  4780              BLX      r0
;;;156    	A &= cpu_getmemory(savepc);   
000004  f7fffffe          BL       cpu_getmemory
000008  490a              LDR      r1,|L5.52|
00000a  788a              LDRB     r2,[r1,#2]  ; A
00000c  4010              ANDS     r0,r0,r2
00000e  7088              STRB     r0,[r1,#2]
;;;157    	SetFlag(Z_FLAG, A == 0x00);
000010  794a              LDRB     r2,[r1,#5]  ; P
000012  bf0c              ITE      EQ
000014  f0420202          ORREQ    r2,r2,#2
000018  f0220202          BICNE    r2,r2,#2
00001c  714a              STRB     r2,[r1,#5]
;;;158    	SetFlag(N_FLAG, A & 0x80);  /* 0x80 is the MSB bit to indicate the value is negative */ 
00001e  f0100f80          TST      r0,#0x80
000022  b2d0              UXTB     r0,r2
000024  bf14              ITE      NE
000026  f0400080          ORRNE    r0,r0,#0x80
00002a  f0200080          BICEQ    r0,r0,#0x80
00002e  7148              STRB     r0,[r1,#5]
;;;159    }   
000030  bd10              POP      {r4,pc}
;;;160    
                          ENDP

000032  0000              DCW      0x0000
                  |L5.52|
                          DCD      ||.data||

                          AREA ||i.cpu_asl||, CODE, READONLY, ALIGN=2

                  cpu_asl PROC
;;;346    /* ASL - Arithmetic Shift Left */
;;;347    static inline void cpu_asl(CpuAdrMode adrmode)   
000000  e92d41f0          PUSH     {r4-r8,lr}
;;;348    {   
;;;349    	uint16_t savepc = adrmode();   
000004  4780              BLX      r0
000006  4604              MOV      r4,r0
;;;350    	uint16_t value = cpu_getmemory(savepc);   
000008  f7fffffe          BL       cpu_getmemory
00000c  b280              UXTH     r0,r0
;;;351    	value = value << 1;
00000e  f64f71ff          MOV      r1,#0xffff
000012  ea010640          AND      r6,r1,r0,LSL #1
;;;352    	cpu_putmemory(savepc,value & 0x00FF);  
000016  4620              MOV      r0,r4
000018  f4044370          AND      r3,r4,#0xf000
00001c  131c              ASRS     r4,r3,#12
00001e  2100              MOVS     r1,#0
000020  f8dfc298          LDR      r12,|L6.700|
000024  4ba6              LDR      r3,|L6.704|
000026  4da7              LDR      r5,|L6.708|
000028  b2f2              UXTB     r2,r6
00002a  2c05              CMP      r4,#5
00002c  f0808129          BCS.W    |L6.642|
000030  e8dff004          TBB      [pc,r4]
000034  03030909          DCB      0x03,0x03,0x09,0x09
000038  9400              DCB      0x94,0x00
00003a  f3c0000a          UBFX     r0,r0,#0,#11
00003e  f80c2000          STRB     r2,[r12,r0]
000042  f000b91e          B.W      |L6.642|
000046  f0000107          AND      r1,r0,#7
00004a  4f9f              LDR      r7,|L6.712|
00004c  489f              LDR      r0,|L6.716|
00004e  4ca0              LDR      r4,|L6.720|
000050  2908              CMP      r1,#8
000052  f0808116          BCS.W    |L6.642|
000056  e8dff001          TBB      [pc,r1]
00005a  0407              DCB      0x04,0x07
00005c  800a0e18          DCB      0x80,0x0a,0x0e,0x18
000060  2731              DCB      0x27,0x31
000062  703a              STRB     r2,[r7,#0]
000064  f000b90d          B.W      |L6.642|
000068  707a              STRB     r2,[r7,#1]
00006a  f000b90a          B.W      |L6.642|
00006e  f8832100          STRB     r2,[r3,#0x100]
000072  f000b906          B.W      |L6.642|
000076  f8930100          LDRB     r0,[r3,#0x100]  ; Spr_Mem
00007a  541a              STRB     r2,[r3,r0]
00007c  f8930100          LDRB     r0,[r3,#0x100]  ; Spr_Mem
000080  1c40              ADDS     r0,r0,#1
000082  f8830100          STRB     r0,[r3,#0x100]
000086  f000b8fc          B.W      |L6.642|
00008a  7801              LDRB     r1,[r0,#0]  ; PPU_Latch_Flag
00008c  2900              CMP      r1,#0
00008e  bf08              IT       EQ
000090  4b90              LDREQ    r3,|L6.724|
000092  d003              BEQ      |L6.156|
000094  2aef              CMP      r2,#0xef
000096  bf88              IT       HI
000098  2200              MOVHI    r2,#0
00009a  4b8f              LDR      r3,|L6.728|
                  |L6.156|
00009c  f0810101          EOR      r1,r1,#1
0000a0  701a              STRB     r2,[r3,#0]
0000a2  7001              STRB     r1,[r0,#0]
0000a4  f000b8ed          B.W      |L6.642|
0000a8  7821              LDRB     r1,[r4,#0]  ; PPU_Mem
0000aa  eb022101          ADD      r1,r2,r1,LSL #8
0000ae  8021              STRH     r1,[r4,#0]
0000b0  7801              LDRB     r1,[r0,#0]  ; PPU_Latch_Flag
0000b2  f0810101          EOR      r1,r1,#1
0000b6  7001              STRB     r1,[r0,#0]
0000b8  f000b8e3          B.W      |L6.642|
0000bc  8820              LDRH     r0,[r4,#0]  ; PPU_Mem
0000be  f4104170          ANDS     r1,r0,#0xf000
0000c2  bf18              IT       NE
0000c4  f5b15f80          CMPNE    r1,#0x1000
0000c8  d03f              BEQ      |L6.330|
0000ca  f5b15f00          CMP      r1,#0x2000
0000ce  d003              BEQ      |L6.216|
0000d0  f5b15f40          CMP      r1,#0x3000
0000d4  d019              BEQ      |L6.266|
0000d6  e038              B        |L6.330|
                  |L6.216|
0000d8  f3c0000b          UBFX     r0,r0,#0,#12
0000dc  f5b06f40          CMP      r0,#0xc00
0000e0  bf84              ITT      HI
0000e2  69a1              LDRHI    r1,[r4,#0x18]  ; PPU_Mem
0000e4  f5a06040          SUBHI    r0,r0,#0xc00
0000e8  d80d              BHI      |L6.262|
0000ea  f5b06f00          CMP      r0,#0x800
0000ee  bf84              ITT      HI
0000f0  6961              LDRHI    r1,[r4,#0x14]  ; PPU_Mem
0000f2  f5a06000          SUBHI    r0,r0,#0x800
0000f6  d806              BHI      |L6.262|
0000f8  f5b06f80          CMP      r0,#0x400
0000fc  bf86              ITTE     HI
0000fe  6921              LDRHI    r1,[r4,#0x10]  ; PPU_Mem
000100  f5a06080          SUBHI    r0,r0,#0x400
000104  68e1              LDRLS    r1,[r4,#0xc]  ; PPU_Mem
                  |L6.262|
000106  540a              STRB     r2,[r1,r0]
000108  e01f              B        |L6.330|
                  |L6.266|
00010a  f000011f          AND      r1,r0,#0x1f
00010e  f000000f          AND      r0,r0,#0xf
000112  290f              CMP      r1,#0xf
000114  4420              ADD      r0,r0,r4
000116  d915              BLS      |L6.324|
000118  f880202c          STRB     r2,[r0,#0x2c]
00011c  7820              LDRB     r0,[r4,#0]  ; PPU_Mem
00011e  f0100f03          TST      r0,#3
000122  d112              BNE      |L6.330|
000124  7722              STRB     r2,[r4,#0x1c]
000126  f884202c          STRB     r2,[r4,#0x2c]
00012a  f8842020          STRB     r2,[r4,#0x20]
00012e  f8842030          STRB     r2,[r4,#0x30]
000132  f8842024          STRB     r2,[r4,#0x24]
000136  f8842034          STRB     r2,[r4,#0x34]
00013a  f8842028          STRB     r2,[r4,#0x28]
00013e  f8842038          STRB     r2,[r4,#0x38]
000142  e002              B        |L6.330|
                  |L6.324|
000144  7702              STRB     r2,[r0,#0x1c]
000146  f7fffffe          BL       premap_palette
                  |L6.330|
00014a  7838              LDRB     r0,[r7,#0]  ; PPU_Reg
00014c  f0100f04          TST      r0,#4
000150  8820              LDRH     r0,[r4,#0]  ; PPU_Mem
000152  bf14              ITE      NE
000154  3020              ADDNE    r0,r0,#0x20
000156  1c40              ADDEQ    r0,r0,#1
000158  8020              STRH     r0,[r4,#0]
00015a  e092              B        |L6.642|
00015c  f5a04480          SUB      r4,r0,#0x4000
000160  3c14              SUBS     r4,r4,#0x14
000162  d004              BEQ      |L6.366|
000164  f5a04380          SUB      r3,r0,#0x4000
000168  3b16              SUBS     r3,r3,#0x16
00016a  d03b              BEQ      |L6.484|
00016c  e089              B        |L6.642|
                  |L6.366|
00016e  6c28              LDR      r0,[r5,#0x40]  ; cpu_clockticks
000170  2100              MOVS     r1,#0
000172  f5a07000          SUB      r0,r0,#0x200
000176  6428              STR      r0,[r5,#0x40]  ; cpu_clockticks
000178  0910              LSRS     r0,r2,#4
00017a  2810              CMP      r0,#0x10
00017c  d217              BCS      |L6.430|
00017e  e8dff000          TBB      [pc,r0]
000182  0808              DCB      0x08,0x08
000184  16161616          DCB      0x16,0x16,0x16,0x16
000188  80800b0b          DCB      0x80,0x80,0x0b,0x0b
00018c  0b0b1111          DCB      0x0b,0x0b,0x11,0x11
000190  1111              DCB      0x11,0x11
000192  eb0c2102          ADD      r1,r12,r2,LSL #8
000196  e00a              B        |L6.430|
000198  6ba8              LDR      r0,[r5,#0x38]  ; prg_rombank0
00019a  eb002002          ADD      r0,r0,r2,LSL #8
00019e  f5a04100          SUB      r1,r0,#0x8000
0001a2  e004              B        |L6.430|
0001a4  6be8              LDR      r0,[r5,#0x3c]  ; prg_rombank1
0001a6  eb002002          ADD      r0,r0,r2,LSL #8
0001aa  f5a04140          SUB      r1,r0,#0xc000
                  |L6.430|
0001ae  1a58              SUBS     r0,r3,r1
0001b0  2800              CMP      r0,#0
0001b2  dd04              BLE      |L6.446|
0001b4  f5b07f80          CMP      r0,#0x100
0001b8  bfb8              IT       LT
0001ba  2000              MOVLT    r0,#0
0001bc  db05              BLT      |L6.458|
                  |L6.446|
0001be  f44f7280          MOV      r2,#0x100
0001c2  483f              LDR      r0,|L6.704|
0001c4  f7fffffe          BL       __aeabi_memmove
0001c8  e05b              B        |L6.642|
                  |L6.458|
0001ca  5c0a              LDRB     r2,[r1,r0]
0001cc  541a              STRB     r2,[r3,r0]
0001ce  180a              ADDS     r2,r1,r0
0001d0  eb030c00          ADD      r12,r3,r0
0001d4  7852              LDRB     r2,[r2,#1]
0001d6  1c80              ADDS     r0,r0,#2
0001d8  f88c2001          STRB     r2,[r12,#1]
0001dc  f5b07f80          CMP      r0,#0x100
0001e0  dbf3              BLT      |L6.458|
0001e2  e04e              B        |L6.642|
                  |L6.484|
0001e4  2a00              CMP      r2,#0
0001e6  d04a              BEQ      |L6.638|
0001e8  483c              LDR      r0,|L6.732|
0001ea  7001              STRB     r1,[r0,#0]
0001ec  483c              LDR      r0,|L6.736|
0001ee  6900              LDR      r0,[r0,#0x10]
0001f0  43c0              MVNS     r0,r0
0001f2  b281              UXTH     r1,r0
0001f4  483b              LDR      r0,|L6.740|
0001f6  8803              LDRH     r3,[r0,#0]  ; joys
0001f8  f5b36f40          CMP      r3,#0xc00
0001fc  bf94              ITE      LS
0001fe  f04f0c00          MOVLS    r12,#0
000202  f04f0c01          MOVHI    r12,#1
000206  ea41410c          ORR      r1,r1,r12,LSL #16
00020a  f5b36f80          CMP      r3,#0x400
00020e  bf34              ITE      CC
000210  2301              MOVCC    r3,#1
000212  2300              MOVCS    r3,#0
000214  ea414143          ORR      r1,r1,r3,LSL #17
000218  8843              LDRH     r3,[r0,#2]  ; joys
00021a  f5b36f40          CMP      r3,#0xc00
00021e  bf8c              ITE      HI
000220  f04f0c01          MOVHI    r12,#1
000224  f04f0c00          MOVLS    r12,#0
000228  ea41418c          ORR      r1,r1,r12,LSL #18
00022c  f5b36f80          CMP      r3,#0x400
000230  bf34              ITE      CC
000232  2301              MOVCC    r3,#1
000234  2300              MOVCS    r3,#0
000236  ea4143c3          ORR      r3,r1,r3,LSL #19
00023a  88c1              LDRH     r1,[r0,#6]  ; joys
00023c  f5b16f40          CMP      r1,#0xc00
000240  bf8c              ITE      HI
000242  f04f0c01          MOVHI    r12,#1
000246  f04f0c00          MOVLS    r12,#0
00024a  ea43530c          ORR      r3,r3,r12,LSL #20
00024e  f5b16f80          CMP      r1,#0x400
000252  bf34              ITE      CC
000254  2101              MOVCC    r1,#1
000256  2100              MOVCS    r1,#0
000258  ea435141          ORR      r1,r3,r1,LSL #21
00025c  8880              LDRH     r0,[r0,#4]  ; joys
00025e  f5b06f40          CMP      r0,#0xc00
000262  bf8c              ITE      HI
000264  2301              MOVHI    r3,#1
000266  2300              MOVLS    r3,#0
000268  ea415183          ORR      r1,r1,r3,LSL #22
00026c  f5b06f80          CMP      r0,#0x400
000270  bf34              ITE      CC
000272  2001              MOVCC    r0,#1
000274  2000              MOVCS    r0,#0
000276  ea4150c0          ORR      r0,r1,r0,LSL #23
00027a  6168              STR      r0,[r5,#0x14]  ; joypad_state
00027c  6168              STR      r0,[r5,#0x14]  ; joypad_state
                  |L6.638|
00027e  481a              LDR      r0,|L6.744|
000280  7002              STRB     r2,[r0,#0]
                  |L6.642|
;;;353    	SetFlag(C_FLAG, (value & 0xFF00) > 0);
000282  7968              LDRB     r0,[r5,#5]  ; P
000284  f4164f7f          TST      r6,#0xff00
000288  bf14              ITE      NE
00028a  f0400001          ORRNE    r0,r0,#1
00028e  f0200001          BICEQ    r0,r0,#1
000292  7168              STRB     r0,[r5,#5]
;;;354    	SetFlag(Z_FLAG, (value & 0x00FF) == 0x00);
000294  f0160fff          TST      r6,#0xff
000298  b2c0              UXTB     r0,r0
00029a  bf0c              ITE      EQ
00029c  f0400002          ORREQ    r0,r0,#2
0002a0  f0200002          BICNE    r0,r0,#2
0002a4  7168              STRB     r0,[r5,#5]
;;;355    	SetFlag(N_FLAG, value & 0x80);
0002a6  f0160f80          TST      r6,#0x80
0002aa  b2c0              UXTB     r0,r0
0002ac  bf14              ITE      NE
0002ae  f0400080          ORRNE    r0,r0,#0x80
0002b2  f0200080          BICEQ    r0,r0,#0x80
0002b6  7168              STRB     r0,[r5,#5]
;;;356    }   
0002b8  e8bd81f0          POP      {r4-r8,pc}
;;;357    
                          ENDP

                  |L6.700|
                          DCD      ||.bss||
                  |L6.704|
                          DCD      Spr_Mem
                  |L6.708|
                          DCD      ||.data||
                  |L6.712|
                          DCD      PPU_Reg
                  |L6.716|
                          DCD      PPU_Latch_Flag
                  |L6.720|
                          DCD      PPU_Mem
                  |L6.724|
                          DCD      PPU_BG_HScrlOrg
                  |L6.728|
                          DCD      PPU_BG_VScrlOrg
                  |L6.732|
                          DCD      ||.data||+0x9
                  |L6.736|
                          DCD      0x40021000
                  |L6.740|
                          DCD      joys
                  |L6.744|
                          DCD      ||.data||+0xb

                          AREA ||i.cpu_cmp||, CODE, READONLY, ALIGN=2

                  cpu_cmp PROC
;;;252    /* CMP - Compare */
;;;253    static inline void cpu_cmp(CpuAdrMode adrmode)   
000000  b510              PUSH     {r4,lr}
;;;254    {   
;;;255    	uint16_t savepc = adrmode();   
000002  4780              BLX      r0
;;;256    	uint8_t value = cpu_getmemory(savepc);   
000004  f7fffffe          BL       cpu_getmemory
000008  b2c2              UXTB     r2,r0
;;;257    	uint16_t temp = (uint16_t)A - (uint16_t)value;
00000a  480f              LDR      r0,|L7.72|
00000c  7883              LDRB     r3,[r0,#2]  ; A
00000e  1a99              SUBS     r1,r3,r2
;;;258    	SetFlag(C_FLAG, A >= value);
000010  4293              CMP      r3,r2
000012  7942              LDRB     r2,[r0,#5]  ; P
000014  b289              UXTH     r1,r1                 ;257
000016  bf2c              ITE      CS
000018  f0420201          ORRCS    r2,r2,#1
00001c  f0220201          BICCC    r2,r2,#1
000020  7142              STRB     r2,[r0,#5]
;;;259    	SetFlag(Z_FLAG, (temp & 0x00FF) == 0x0000 );
000022  f0110fff          TST      r1,#0xff
000026  b2d2              UXTB     r2,r2
000028  bf0c              ITE      EQ
00002a  f0420202          ORREQ    r2,r2,#2
00002e  f0220202          BICNE    r2,r2,#2
000032  7142              STRB     r2,[r0,#5]
;;;260    	SetFlag(N_FLAG, temp & 0x0080);
000034  f0110f80          TST      r1,#0x80
000038  b2d1              UXTB     r1,r2
00003a  bf14              ITE      NE
00003c  f0410180          ORRNE    r1,r1,#0x80
000040  f0210180          BICEQ    r1,r1,#0x80
000044  7141              STRB     r1,[r0,#5]
;;;261    }  
000046  bd10              POP      {r4,pc}
;;;262    
                          ENDP

                  |L7.72|
                          DCD      ||.data||

                          AREA ||i.cpu_debug_print||, CODE, READONLY, ALIGN=2

                  cpu_debug_print PROC
;;;172    #endif		/* __LCD_MAIN_H */
;;;204    void cpu_debug_print(uint8_t line) {
000000  b570              PUSH     {r4-r6,lr}
000002  4605              MOV      r5,r0
;;;205    	tft_printc(0, line, "A  X  Y  P  S  PC   NQ *PC");
000004  4601              MOV      r1,r0
000006  a235              ADR      r2,|L8.220|
000008  2000              MOVS     r0,#0
00000a  f7fffffe          BL       tft_printc
;;;206    	tft_printc(30, line, (char*)opcode_names[opcode]);
00000e  483a              LDR      r0,|L8.248|
000010  f1a00444          SUB      r4,r0,#0x44
000014  79e1              LDRB     r1,[r4,#7]  ; opcode
000016  f8502021          LDR      r2,[r0,r1,LSL #2]
00001a  4629              MOV      r1,r5
00001c  201e              MOVS     r0,#0x1e
00001e  f7fffffe          BL       tft_printc
000022  1c6d              ADDS     r5,r5,#1
;;;207    
;;;208    	tft_printh(0,  line+1, A, 8);
000024  b2e9              UXTB     r1,r5
000026  2308              MOVS     r3,#8
000028  78a2              LDRB     r2,[r4,#2]  ; A
00002a  2000              MOVS     r0,#0
00002c  f7fffffe          BL       tft_printh
;;;209    	tft_printh(3,  line+1, X, 8);
000030  b2e9              UXTB     r1,r5
000032  2308              MOVS     r3,#8
000034  78e2              LDRB     r2,[r4,#3]  ; X
000036  2003              MOVS     r0,#3
000038  f7fffffe          BL       tft_printh
;;;210    	tft_printh(6,  line+1, Y, 8);
00003c  b2e9              UXTB     r1,r5
00003e  2308              MOVS     r3,#8
000040  7922              LDRB     r2,[r4,#4]  ; Y
000042  2006              MOVS     r0,#6
000044  f7fffffe          BL       tft_printh
;;;211    	tft_printh(9,  line+1, P, 8);
000048  b2e9              UXTB     r1,r5
00004a  2308              MOVS     r3,#8
00004c  7962              LDRB     r2,[r4,#5]  ; P
00004e  2009              MOVS     r0,#9
000050  f7fffffe          BL       tft_printh
;;;212    	tft_printh(12, line+1, S, 8);
000054  b2e9              UXTB     r1,r5
000056  2308              MOVS     r3,#8
000058  79a2              LDRB     r2,[r4,#6]  ; S
00005a  200c              MOVS     r0,#0xc
00005c  f7fffffe          BL       tft_printh
;;;213    	tft_printh(15, line+1, PC, 16);
000060  b2e9              UXTB     r1,r5
000062  2310              MOVS     r3,#0x10
000064  89e2              LDRH     r2,[r4,#0xe]  ; PC
000066  200f              MOVS     r0,#0xf
000068  f7fffffe          BL       tft_printh
;;;214    	tft_printb(20, line+1, NMI_Flag, 1);
00006c  b2e9              UXTB     r1,r5
00006e  2301              MOVS     r3,#1
000070  7822              LDRB     r2,[r4,#0]  ; NMI_Flag
000072  2014              MOVS     r0,#0x14
000074  f7fffffe          BL       tft_printb
;;;215    	tft_printb(21, line+1, IRQ_Flag, 1);
000078  b2e9              UXTB     r1,r5
00007a  2301              MOVS     r3,#1
00007c  7862              LDRB     r2,[r4,#1]  ; IRQ_Flag
00007e  2015              MOVS     r0,#0x15
000080  f7fffffe          BL       tft_printb
;;;216    	
;;;217    	tft_printh(23, line+1, cpu_getmemory(PC),   8);
000084  89e0              LDRH     r0,[r4,#0xe]  ; PC
000086  f7fffffe          BL       cpu_getmemory
00008a  4602              MOV      r2,r0
00008c  b2e9              UXTB     r1,r5
00008e  2308              MOVS     r3,#8
000090  2017              MOVS     r0,#0x17
000092  f7fffffe          BL       tft_printh
;;;218    	tft_printh(25, line+1, cpu_getmemory(PC+1), 8);
000096  89e0              LDRH     r0,[r4,#0xe]  ; PC
000098  1c40              ADDS     r0,r0,#1
00009a  b280              UXTH     r0,r0
00009c  f7fffffe          BL       cpu_getmemory
0000a0  4602              MOV      r2,r0
0000a2  b2e9              UXTB     r1,r5
0000a4  2308              MOVS     r3,#8
0000a6  2019              MOVS     r0,#0x19
0000a8  f7fffffe          BL       tft_printh
;;;219    	tft_printh(27, line+1, cpu_getmemory(PC+2), 8);
0000ac  89e0              LDRH     r0,[r4,#0xe]  ; PC
0000ae  1c80              ADDS     r0,r0,#2
0000b0  b280              UXTH     r0,r0
0000b2  f7fffffe          BL       cpu_getmemory
0000b6  4602              MOV      r2,r0
0000b8  b2e9              UXTB     r1,r5
0000ba  2308              MOVS     r3,#8
0000bc  201b              MOVS     r0,#0x1b
0000be  f7fffffe          BL       tft_printh
;;;220    	tft_printh(29, line+1, cpu_getmemory(PC+3), 8);
0000c2  89e0              LDRH     r0,[r4,#0xe]  ; PC
0000c4  1cc0              ADDS     r0,r0,#3
0000c6  b280              UXTH     r0,r0
0000c8  f7fffffe          BL       cpu_getmemory
0000cc  b2e9              UXTB     r1,r5
0000ce  e8bd4070          POP      {r4-r6,lr}
0000d2  2308              MOVS     r3,#8
0000d4  4602              MOV      r2,r0
0000d6  201d              MOVS     r0,#0x1d
0000d8  f7ffbffe          B.W      tft_printh
;;;221    
;;;222    	// uint8_t* ptr = sram;
;;;223    	// tft_printh(0,line+2, *ptr++, 8);
;;;224    	// tft_printh(2,line+2, *ptr++, 8);
;;;225    	// tft_printh(4,line+2, *ptr++, 8);
;;;226    	// tft_printh(6,line+2, *ptr++, 8);
;;;227    	// tft_printc(0,line+3, (char*)sram);
;;;228    }
                          ENDP

                  |L8.220|
0000dc  41202058          DCB      "A  X  Y  P  S  PC   NQ *PC",0
0000e0  20205920
0000e4  20502020
0000e8  53202050
0000ec  43202020
0000f0  4e51202a
0000f4  504300  
0000f7  00                DCB      0
                  |L8.248|
                          DCD      ||.data||+0x44

                          AREA ||i.cpu_dec||, CODE, READONLY, ALIGN=2

                  cpu_dec PROC
;;;316    /* DEC - Decrement Memory */
;;;317    static inline void cpu_dec(CpuAdrMode adrmode)   
000000  e92d41f0          PUSH     {r4-r8,lr}
;;;318    {   
;;;319    	uint16_t savepc = /*opcodetable[opcode].*/adrmode();   
000004  4780              BLX      r0
000006  4604              MOV      r4,r0
;;;320    	uint16_t temp = cpu_getmemory(savepc);   
000008  f7fffffe          BL       cpu_getmemory
00000c  1e40              SUBS     r0,r0,#1
;;;321    	temp--;   
00000e  b286              UXTH     r6,r0
;;;322    	cpu_putmemory(savepc, temp);   
000010  4620              MOV      r0,r4
000012  f4044370          AND      r3,r4,#0xf000
000016  131c              ASRS     r4,r3,#12
000018  2100              MOVS     r1,#0
00001a  f8dfc288          LDR      r12,|L9.676|
00001e  4ba2              LDR      r3,|L9.680|
000020  4da2              LDR      r5,|L9.684|
000022  b2f2              UXTB     r2,r6
000024  2c05              CMP      r4,#5
000026  f0808129          BCS.W    |L9.636|
00002a  e8dff004          TBB      [pc,r4]
00002e  0303              DCB      0x03,0x03
000030  09099400          DCB      0x09,0x09,0x94,0x00
000034  f3c0000a          UBFX     r0,r0,#0,#11
000038  f80c2000          STRB     r2,[r12,r0]
00003c  f000b91e          B.W      |L9.636|
000040  f0000107          AND      r1,r0,#7
000044  4f9a              LDR      r7,|L9.688|
000046  489b              LDR      r0,|L9.692|
000048  4c9b              LDR      r4,|L9.696|
00004a  2908              CMP      r1,#8
00004c  f0808116          BCS.W    |L9.636|
000050  e8dff001          TBB      [pc,r1]
000054  0407800a          DCB      0x04,0x07,0x80,0x0a
000058  0e182731          DCB      0x0e,0x18,0x27,0x31
00005c  703a              STRB     r2,[r7,#0]
00005e  f000b90d          B.W      |L9.636|
000062  707a              STRB     r2,[r7,#1]
000064  f000b90a          B.W      |L9.636|
000068  f8832100          STRB     r2,[r3,#0x100]
00006c  f000b906          B.W      |L9.636|
000070  f8930100          LDRB     r0,[r3,#0x100]  ; Spr_Mem
000074  541a              STRB     r2,[r3,r0]
000076  f8930100          LDRB     r0,[r3,#0x100]  ; Spr_Mem
00007a  1c40              ADDS     r0,r0,#1
00007c  f8830100          STRB     r0,[r3,#0x100]
000080  f000b8fc          B.W      |L9.636|
000084  7801              LDRB     r1,[r0,#0]  ; PPU_Latch_Flag
000086  2900              CMP      r1,#0
000088  bf08              IT       EQ
00008a  4b8c              LDREQ    r3,|L9.700|
00008c  d003              BEQ      |L9.150|
00008e  2aef              CMP      r2,#0xef
000090  bf88              IT       HI
000092  2200              MOVHI    r2,#0
000094  4b8a              LDR      r3,|L9.704|
                  |L9.150|
000096  f0810101          EOR      r1,r1,#1
00009a  701a              STRB     r2,[r3,#0]
00009c  7001              STRB     r1,[r0,#0]
00009e  f000b8ed          B.W      |L9.636|
0000a2  7821              LDRB     r1,[r4,#0]  ; PPU_Mem
0000a4  eb022101          ADD      r1,r2,r1,LSL #8
0000a8  8021              STRH     r1,[r4,#0]
0000aa  7801              LDRB     r1,[r0,#0]  ; PPU_Latch_Flag
0000ac  f0810101          EOR      r1,r1,#1
0000b0  7001              STRB     r1,[r0,#0]
0000b2  f000b8e3          B.W      |L9.636|
0000b6  8820              LDRH     r0,[r4,#0]  ; PPU_Mem
0000b8  f4104170          ANDS     r1,r0,#0xf000
0000bc  bf18              IT       NE
0000be  f5b15f80          CMPNE    r1,#0x1000
0000c2  d03f              BEQ      |L9.324|
0000c4  f5b15f00          CMP      r1,#0x2000
0000c8  d003              BEQ      |L9.210|
0000ca  f5b15f40          CMP      r1,#0x3000
0000ce  d019              BEQ      |L9.260|
0000d0  e038              B        |L9.324|
                  |L9.210|
0000d2  f3c0000b          UBFX     r0,r0,#0,#12
0000d6  f5b06f40          CMP      r0,#0xc00
0000da  bf84              ITT      HI
0000dc  69a1              LDRHI    r1,[r4,#0x18]  ; PPU_Mem
0000de  f5a06040          SUBHI    r0,r0,#0xc00
0000e2  d80d              BHI      |L9.256|
0000e4  f5b06f00          CMP      r0,#0x800
0000e8  bf84              ITT      HI
0000ea  6961              LDRHI    r1,[r4,#0x14]  ; PPU_Mem
0000ec  f5a06000          SUBHI    r0,r0,#0x800
0000f0  d806              BHI      |L9.256|
0000f2  f5b06f80          CMP      r0,#0x400
0000f6  bf86              ITTE     HI
0000f8  6921              LDRHI    r1,[r4,#0x10]  ; PPU_Mem
0000fa  f5a06080          SUBHI    r0,r0,#0x400
0000fe  68e1              LDRLS    r1,[r4,#0xc]  ; PPU_Mem
                  |L9.256|
000100  540a              STRB     r2,[r1,r0]
000102  e01f              B        |L9.324|
                  |L9.260|
000104  f000011f          AND      r1,r0,#0x1f
000108  f000000f          AND      r0,r0,#0xf
00010c  290f              CMP      r1,#0xf
00010e  4420              ADD      r0,r0,r4
000110  d915              BLS      |L9.318|
000112  f880202c          STRB     r2,[r0,#0x2c]
000116  7820              LDRB     r0,[r4,#0]  ; PPU_Mem
000118  f0100f03          TST      r0,#3
00011c  d112              BNE      |L9.324|
00011e  7722              STRB     r2,[r4,#0x1c]
000120  f884202c          STRB     r2,[r4,#0x2c]
000124  f8842020          STRB     r2,[r4,#0x20]
000128  f8842030          STRB     r2,[r4,#0x30]
00012c  f8842024          STRB     r2,[r4,#0x24]
000130  f8842034          STRB     r2,[r4,#0x34]
000134  f8842028          STRB     r2,[r4,#0x28]
000138  f8842038          STRB     r2,[r4,#0x38]
00013c  e002              B        |L9.324|
                  |L9.318|
00013e  7702              STRB     r2,[r0,#0x1c]
000140  f7fffffe          BL       premap_palette
                  |L9.324|
000144  7838              LDRB     r0,[r7,#0]  ; PPU_Reg
000146  f0100f04          TST      r0,#4
00014a  8820              LDRH     r0,[r4,#0]  ; PPU_Mem
00014c  bf14              ITE      NE
00014e  3020              ADDNE    r0,r0,#0x20
000150  1c40              ADDEQ    r0,r0,#1
000152  8020              STRH     r0,[r4,#0]
000154  e092              B        |L9.636|
000156  f5a04480          SUB      r4,r0,#0x4000
00015a  3c14              SUBS     r4,r4,#0x14
00015c  d004              BEQ      |L9.360|
00015e  f5a04380          SUB      r3,r0,#0x4000
000162  3b16              SUBS     r3,r3,#0x16
000164  d03b              BEQ      |L9.478|
000166  e089              B        |L9.636|
                  |L9.360|
000168  6c28              LDR      r0,[r5,#0x40]  ; cpu_clockticks
00016a  2100              MOVS     r1,#0
00016c  f5a07000          SUB      r0,r0,#0x200
000170  6428              STR      r0,[r5,#0x40]  ; cpu_clockticks
000172  0910              LSRS     r0,r2,#4
000174  2810              CMP      r0,#0x10
000176  d217              BCS      |L9.424|
000178  e8dff000          TBB      [pc,r0]
00017c  08081616          DCB      0x08,0x08,0x16,0x16
000180  16168080          DCB      0x16,0x16,0x80,0x80
000184  0b0b0b0b          DCB      0x0b,0x0b,0x0b,0x0b
000188  11111111          DCB      0x11,0x11,0x11,0x11
00018c  eb0c2102          ADD      r1,r12,r2,LSL #8
000190  e00a              B        |L9.424|
000192  6ba8              LDR      r0,[r5,#0x38]  ; prg_rombank0
000194  eb002002          ADD      r0,r0,r2,LSL #8
000198  f5a04100          SUB      r1,r0,#0x8000
00019c  e004              B        |L9.424|
00019e  6be8              LDR      r0,[r5,#0x3c]  ; prg_rombank1
0001a0  eb002002          ADD      r0,r0,r2,LSL #8
0001a4  f5a04140          SUB      r1,r0,#0xc000
                  |L9.424|
0001a8  1a58              SUBS     r0,r3,r1
0001aa  2800              CMP      r0,#0
0001ac  dd04              BLE      |L9.440|
0001ae  f5b07f80          CMP      r0,#0x100
0001b2  bfb8              IT       LT
0001b4  2000              MOVLT    r0,#0
0001b6  db05              BLT      |L9.452|
                  |L9.440|
0001b8  f44f7280          MOV      r2,#0x100
0001bc  483a              LDR      r0,|L9.680|
0001be  f7fffffe          BL       __aeabi_memmove
0001c2  e05b              B        |L9.636|
                  |L9.452|
0001c4  5c0a              LDRB     r2,[r1,r0]
0001c6  541a              STRB     r2,[r3,r0]
0001c8  180a              ADDS     r2,r1,r0
0001ca  eb030c00          ADD      r12,r3,r0
0001ce  7852              LDRB     r2,[r2,#1]
0001d0  1c80              ADDS     r0,r0,#2
0001d2  f88c2001          STRB     r2,[r12,#1]
0001d6  f5b07f80          CMP      r0,#0x100
0001da  dbf3              BLT      |L9.452|
0001dc  e04e              B        |L9.636|
                  |L9.478|
0001de  2a00              CMP      r2,#0
0001e0  d04a              BEQ      |L9.632|
0001e2  4838              LDR      r0,|L9.708|
0001e4  7001              STRB     r1,[r0,#0]
0001e6  4838              LDR      r0,|L9.712|
0001e8  6900              LDR      r0,[r0,#0x10]
0001ea  43c0              MVNS     r0,r0
0001ec  b283              UXTH     r3,r0
0001ee  4837              LDR      r0,|L9.716|
0001f0  8801              LDRH     r1,[r0,#0]  ; joys
0001f2  f5b16f40          CMP      r1,#0xc00
0001f6  bf94              ITE      LS
0001f8  f04f0c00          MOVLS    r12,#0
0001fc  f04f0c01          MOVHI    r12,#1
000200  ea43430c          ORR      r3,r3,r12,LSL #16
000204  f5b16f80          CMP      r1,#0x400
000208  bf34              ITE      CC
00020a  2101              MOVCC    r1,#1
00020c  2100              MOVCS    r1,#0
00020e  ea434341          ORR      r3,r3,r1,LSL #17
000212  8841              LDRH     r1,[r0,#2]  ; joys
000214  f5b16f40          CMP      r1,#0xc00
000218  bf8c              ITE      HI
00021a  f04f0c01          MOVHI    r12,#1
00021e  f04f0c00          MOVLS    r12,#0
000222  ea43438c          ORR      r3,r3,r12,LSL #18
000226  f5b16f80          CMP      r1,#0x400
00022a  bf34              ITE      CC
00022c  2101              MOVCC    r1,#1
00022e  2100              MOVCS    r1,#0
000230  ea4341c1          ORR      r1,r3,r1,LSL #19
000234  88c3              LDRH     r3,[r0,#6]  ; joys
000236  f5b36f40          CMP      r3,#0xc00
00023a  bf8c              ITE      HI
00023c  f04f0c01          MOVHI    r12,#1
000240  f04f0c00          MOVLS    r12,#0
000244  ea41510c          ORR      r1,r1,r12,LSL #20
000248  f5b36f80          CMP      r3,#0x400
00024c  bf34              ITE      CC
00024e  2301              MOVCC    r3,#1
000250  2300              MOVCS    r3,#0
000252  ea415143          ORR      r1,r1,r3,LSL #21
000256  8880              LDRH     r0,[r0,#4]  ; joys
000258  f5b06f40          CMP      r0,#0xc00
00025c  bf8c              ITE      HI
00025e  2301              MOVHI    r3,#1
000260  2300              MOVLS    r3,#0
000262  ea415183          ORR      r1,r1,r3,LSL #22
000266  f5b06f80          CMP      r0,#0x400
00026a  bf34              ITE      CC
00026c  2001              MOVCC    r0,#1
00026e  2000              MOVCS    r0,#0
000270  ea4150c0          ORR      r0,r1,r0,LSL #23
000274  6168              STR      r0,[r5,#0x14]  ; joypad_state
000276  6168              STR      r0,[r5,#0x14]  ; joypad_state
                  |L9.632|
000278  4815              LDR      r0,|L9.720|
00027a  7002              STRB     r2,[r0,#0]
                  |L9.636|
;;;323    	SetFlag(Z_FLAG, (temp & 0x00FF) == 0x0000);
00027c  7968              LDRB     r0,[r5,#5]  ; P
00027e  f0160fff          TST      r6,#0xff
000282  bf0c              ITE      EQ
000284  f0400002          ORREQ    r0,r0,#2
000288  f0200002          BICNE    r0,r0,#2
00028c  7168              STRB     r0,[r5,#5]
;;;324    	SetFlag(N_FLAG, temp & 0x0080);
00028e  f0160f80          TST      r6,#0x80
000292  b2c0              UXTB     r0,r0
000294  bf14              ITE      NE
000296  f0400080          ORRNE    r0,r0,#0x80
00029a  f0200080          BICEQ    r0,r0,#0x80
00029e  7168              STRB     r0,[r5,#5]
;;;325    }   
0002a0  e8bd81f0          POP      {r4-r8,pc}
;;;326    
                          ENDP

                  |L9.676|
                          DCD      ||.bss||
                  |L9.680|
                          DCD      Spr_Mem
                  |L9.684|
                          DCD      ||.data||
                  |L9.688|
                          DCD      PPU_Reg
                  |L9.692|
                          DCD      PPU_Latch_Flag
                  |L9.696|
                          DCD      PPU_Mem
                  |L9.700|
                          DCD      PPU_BG_HScrlOrg
                  |L9.704|
                          DCD      PPU_BG_VScrlOrg
                  |L9.708|
                          DCD      ||.data||+0x9
                  |L9.712|
                          DCD      0x40021000
                  |L9.716|
                          DCD      joys
                  |L9.720|
                          DCD      ||.data||+0xb

                          AREA ||i.cpu_eor||, CODE, READONLY, ALIGN=2

                  cpu_eor PROC
;;;161    /* EOR - Exclusive OR */
;;;162    static inline void cpu_eor(CpuAdrMode adrmode)   
000000  b510              PUSH     {r4,lr}
;;;163    {   
;;;164    	uint16_t savepc = adrmode();   
000002  4780              BLX      r0
;;;165    	A ^= cpu_getmemory(savepc);   
000004  f7fffffe          BL       cpu_getmemory
000008  490b              LDR      r1,|L10.56|
00000a  788a              LDRB     r2,[r1,#2]  ; A
00000c  4050              EORS     r0,r0,r2
00000e  f01000ff          ANDS     r0,r0,#0xff
000012  7088              STRB     r0,[r1,#2]
;;;166    	SetFlag(Z_FLAG, A == 0x00);
000014  794a              LDRB     r2,[r1,#5]  ; P
000016  bf0c              ITE      EQ
000018  f0420202          ORREQ    r2,r2,#2
00001c  f0220202          BICNE    r2,r2,#2
000020  714a              STRB     r2,[r1,#5]
;;;167    	SetFlag(N_FLAG, A & 0x80);  /* 0x80 is the MSB bit to indicate the value is negative */  
000022  f0100f80          TST      r0,#0x80
000026  b2d0              UXTB     r0,r2
000028  bf14              ITE      NE
00002a  f0400080          ORRNE    r0,r0,#0x80
00002e  f0200080          BICEQ    r0,r0,#0x80
000032  7148              STRB     r0,[r1,#5]
;;;168    }   
000034  bd10              POP      {r4,pc}
;;;169    
                          ENDP

000036  0000              DCW      0x0000
                  |L10.56|
                          DCD      ||.data||

                          AREA ||i.cpu_exec||, CODE, READONLY, ALIGN=2

                  cpu_exec PROC
;;;171    /* Execute Instruction */   
;;;172    void cpu_exec(int timerTicks)   
000000  b570              PUSH     {r4-r6,lr}
;;;173    {   
;;;174    	if(NMI_Flag == SET1){   
000002  4c2a              LDR      r4,|L11.172|
000004  4605              MOV      r5,r0                 ;173
000006  4e2a              LDR      r6,|L11.176|
000008  7820              LDRB     r0,[r4,#0]  ; NMI_Flag
00000a  2300              MOVS     r3,#0
00000c  2801              CMP      r0,#1
00000e  d115              BNE      |L11.60|
000010  79a0              LDRB     r0,[r4,#6]            ;173  ; S
000012  89e1              LDRH     r1,[r4,#0xe]          ;173  ; PC
000014  1e80              SUBS     r0,r0,#2              ;173
000016  b2c0              UXTB     r0,r0                 ;173
000018  1832              ADDS     r2,r6,r0              ;173
00001a  1e40              SUBS     r0,r0,#1              ;173
00001c  f8a21101          STRH     r1,[r2,#0x101]        ;173
000020  7961              LDRB     r1,[r4,#5]            ;173  ; P
000022  f8821100          STRB     r1,[r2,#0x100]        ;173
000026  71a0              STRB     r0,[r4,#6]            ;173
000028  f0410004          ORR      r0,r1,#4              ;173
00002c  7160              STRB     r0,[r4,#5]            ;173
00002e  6be0              LDR      r0,[r4,#0x3c]         ;173  ; prg_rombank1
000030  f5005040          ADD      r0,r0,#0x3000         ;173
000034  f8b00ffa          LDRH     r0,[r0,#0xffa]        ;173
000038  81e0              STRH     r0,[r4,#0xe]          ;173
;;;175    		cpu_nmi();   
;;;176    		NMI_Flag = CLR0;   
00003a  7023              STRB     r3,[r4,#0]
                  |L11.60|
;;;177    	} 
;;;178    	/*else if(IRQ_Flag == SET1 && !(P & I_FLAG)){   
;;;179    		cpu_irq();   
;;;180    		IRQ_Flag = CLR0;   
;;;181    	}*/   
;;;182    
;;;183    	while (timerTicks > cpu_clockticks)    
00003c  6c20              LDR      r0,[r4,#0x40]  ; cpu_clockticks
00003e  4285              CMP      r5,r0
000040  dd31              BLE      |L11.166|
                  |L11.66|
000042  89e1              LDRH     r1,[r4,#0xe]  ; PC
000044  1c48              ADDS     r0,r1,#1
000046  81e0              STRH     r0,[r4,#0xe]
000048  f4014070          AND      r0,r1,#0xf000
00004c  1300              ASRS     r0,r0,#12
00004e  2810              CMP      r0,#0x10
000050  d223              BCS      |L11.154|
000052  e8dff000          TBB      [pc,r0]
000056  0808              DCB      0x08,0x08
000058  22222222          DCB      0x22,0x22,0x22,0x22
00005c  0c220c0c          DCB      0x0c,0x22,0x0c,0x0c
000060  0c0c1717          DCB      0x0c,0x0c,0x17,0x17
000064  1717              DCB      0x17,0x17
000066  f3c1000a          UBFX     r0,r1,#0,#11
00006a  5c30              LDRB     r0,[r6,r0]
00006c  71e0              STRB     r0,[r4,#7]
00006e  6ba0              LDR      r0,[r4,#0x38]  ; prg_rombank0
000070  4408              ADD      r0,r0,r1
000072  f5a04000          SUB      r0,r0,#0x8000
000076  7802              LDRB     r2,[r0,#0]
000078  71e2              STRB     r2,[r4,#7]
00007a  7842              LDRB     r2,[r0,#1]
00007c  7222              STRB     r2,[r4,#8]
00007e  f8b00001          LDRH     r0,[r0,#1]
000082  8220              STRH     r0,[r4,#0x10]
000084  6be0              LDR      r0,[r4,#0x3c]  ; prg_rombank1
000086  4408              ADD      r0,r0,r1
000088  f5a04040          SUB      r0,r0,#0xc000
00008c  7801              LDRB     r1,[r0,#0]
00008e  71e1              STRB     r1,[r4,#7]
000090  7841              LDRB     r1,[r0,#1]
000092  7221              STRB     r1,[r4,#8]
000094  f8b00001          LDRH     r0,[r0,#1]
000098  8220              STRH     r0,[r4,#0x10]
                  |L11.154|
;;;184    	{   
;;;185    		// opcode = cpu_getmemory(PC);   
;;;186    		// PC++;   
;;;187    		cpu_loadinstruction();
;;;188    
;;;189    		// opcodetable[opcode].instruction();   
;;;190    		// cpu_clockticks += opcodetable[opcode].ticks;   
;;;191    		cpu_execinstruction(opcode);
00009a  79e0              LDRB     r0,[r4,#7]  ; opcode
00009c  f7fffffe          BL       cpu_execinstruction
0000a0  6c20              LDR      r0,[r4,#0x40]         ;183  ; cpu_clockticks
0000a2  4285              CMP      r5,r0                 ;183
0000a4  dccd              BGT      |L11.66|
                  |L11.166|
;;;192    	}   
;;;193    	cpu_clockticks -= timerTicks;   
0000a6  1b40              SUBS     r0,r0,r5
0000a8  6420              STR      r0,[r4,#0x40]  ; cpu_clockticks
;;;194    }
0000aa  bd70              POP      {r4-r6,pc}
;;;195    
                          ENDP

                  |L11.172|
                          DCD      ||.data||
                  |L11.176|
                          DCD      ||.bss||

                          AREA ||i.cpu_execinstruction||, CODE, READONLY, ALIGN=2

                  cpu_execinstruction PROC
;;;277    #define OPCODE_SWITCH(A, B, C, D) case D: cpu_ ## B(cpu_ ## C); cpu_clockticks += A; break;
;;;278    static void cpu_execinstruction(uint8_t op) {
000000  b570              PUSH     {r4-r6,lr}
000002  4c8a              LDR      r4,|L12.556|
;;;279    	switch (op) {
000004  2880              CMP      r0,#0x80
000006  f0018329          BEQ.W    |L12.5724|
00000a  dc03              BGT      |L12.20|
00000c  2880              CMP      r0,#0x80
;;;280    		OPCODE_TABLE(OPCODE_SWITCH)
;;;281    	}
;;;282    }
00000e  bf28              IT       CS
000010  bd70              POPCS    {r4-r6,pc}
000012  e000              B        |L12.22|
                  |L12.20|
000014  e104              B        |L12.544|
                  |L12.22|
000016  0081              LSLS     r1,r0,#2
000018  4479              ADD      r1,r1,pc
00001a  6849              LDR      r1,[r1,#4]
00001c  448f              ADD      pc,pc,r1
00001e  0000              DCW      0x0000
                          DCD      0x00000418
                          DCD      0x00000456
                          DCD      0x00000464
                          DCD      0x00000464
                          DCD      0x0000046a
                          DCD      0x00000494
                          DCD      0x000004c4
                          DCD      0x00000464
                          DCD      0x00000508
                          DCD      0x0000051e
                          DCD      0x0000052a
                          DCD      0x0000055e
                          DCD      0x0000056c
                          DCD      0x00000850
                          DCD      0x00000858
                          DCD      0x00000464
                          DCD      0x00000864
                          DCD      0x00000876
                          DCD      0x00000882
                          DCD      0x00000464
                          DCD      0x000008b6
                          DCD      0x000008d2
                          DCD      0x00000910
                          DCD      0x00000464
                          DCD      0x0000095a
                          DCD      0x00000964
                          DCD      0x00000970
                          DCD      0x00000464
                          DCD      0x000009a4
                          DCD      0x00000c68
                          DCD      0x00000c76
                          DCD      0x00000464
                          DCD      0x00000c84
                          DCD      0x00000caa
                          DCD      0x00000464
                          DCD      0x00000464
                          DCD      0x00000cb8
                          DCD      0x00000ce8
                          DCD      0x00000d20
                          DCD      0x00000464
                          DCD      0x00000d62
                          DCD      0x00000d80
                          DCD      0x00000d8e
                          DCD      0x00000464
                          DCD      0x00000dc0
                          DCD      0x00000dfa
                          DCD      0x00000e08
                          DCD      0x00000464
                          DCD      0x00000e16
                          DCD      0x00000e40
                          DCD      0x00000e4e
                          DCD      0x00000464
                          DCD      0x00000e7e
                          DCD      0x00000eae
                          DCD      0x00000ee0
                          DCD      0x00000464
                          DCD      0x00000f24
                          DCD      0x00000f30
                          DCD      0x00000f3e
                          DCD      0x00000464
                          DCD      0x00000f64
                          DCD      0x00000f9e
                          DCD      0x00000fac
                          DCD      0x00000464
                          DCD      0x00000fba
                          DCD      0x00000fe0
                          DCD      0x00000464
                          DCD      0x00000464
                          DCD      0x00000464
                          DCD      0x00000fee
                          DCD      0x00001018
                          DCD      0x00000464
                          DCD      0x0000107c
                          DCD      0x00001094
                          DCD      0x000010a2
                          DCD      0x00000464
                          DCD      0x000010dc
                          DCD      0x000010ea
                          DCD      0x000010f8
                          DCD      0x00000464
                          DCD      0x00001106
                          DCD      0x00001112
                          DCD      0x00001120
                          DCD      0x00000464
                          DCD      0x00000464
                          DCD      0x00001152
                          DCD      0x00001184
                          DCD      0x00000464
                          DCD      0x000011d0
                          DCD      0x000011e0
                          DCD      0x000011ee
                          DCD      0x00000464
                          DCD      0x00000464
                          DCD      0x00001206
                          DCD      0x00001214
                          DCD      0x00000464
                          DCD      0x00001222
                          DCD      0x0000123c
                          DCD      0x00000464
                          DCD      0x00000464
                          DCD      0x0000124a
                          DCD      0x00001260
                          DCD      0x000012f2
                          DCD      0x00000464
                          DCD      0x00001338
                          DCD      0x0000136a
                          DCD      0x00001378
                          DCD      0x00000464
                          DCD      0x000013b8
                          DCD      0x000013c6
                          DCD      0x000013d4
                          DCD      0x00000464
                          DCD      0x000013e2
                          DCD      0x00001406
                          DCD      0x00001414
                          DCD      0x00000464
                          DCD      0x000014ca
                          DCD      0x000014e2
                          DCD      0x0000157c
                          DCD      0x00000464
                          DCD      0x000015c8
                          DCD      0x000015d8
                          DCD      0x000015e2
                          DCD      0x00000464
                          DCD      0x00001610
                          DCD      0x0000161e
                          DCD      0x0000162c
                          DCD      0x00000464
                  |L12.544|
000220  3881              SUBS     r0,r0,#0x81
000222  287f              CMP      r0,#0x7f              ;279
000224  bf28              IT       CS
000226  bd70              POPCS    {r4-r6,pc}
000228  e002              B        |L12.560|
00022a  0000              DCW      0x0000
                  |L12.556|
                          DCD      ||.data||
                  |L12.560|
000230  0081              LSLS     r1,r0,#2
000232  bf00              NOP      
000234  4479              ADD      r1,r1,pc
000236  6849              LDR      r1,[r1,#4]
000238  448f              ADD      pc,pc,r1
00023a  0000              DCW      0x0000
                          DCD      0x00001432
                          DCD      0x00000248
                          DCD      0x00000248
                          DCD      0x00001440
                          DCD      0x00001452
                          DCD      0x00001464
                          DCD      0x00000248
                          DCD      0x00001476
                          DCD      0x000014a4
                          DCD      0x000014e6
                          DCD      0x00000248
                          DCD      0x00001504
                          DCD      0x000017c0
                          DCD      0x000017cc
                          DCD      0x00000248
                          DCD      0x000019f6
                          DCD      0x00001a04
                          DCD      0x00001a12
                          DCD      0x00000248
                          DCD      0x00001ccc
                          DCD      0x00001ce8
                          DCD      0x00001d04
                          DCD      0x00000248
                          DCD      0x00001d20
                          DCD      0x00001d40
                          DCD      0x00001d4e
                          DCD      0x00000248
                          DCD      0x00001d5a
                          DCD      0x00001d68
                          DCD      0x00001d76
                          DCD      0x00000248
                          DCD      0x00001d84
                          DCD      0x00001db4
                          DCD      0x00001dc4
                          DCD      0x00000248
                          DCD      0x00001dfa
                          DCD      0x00001e24
                          DCD      0x00001e4e
                          DCD      0x00000248
                          DCD      0x00001e76
                          DCD      0x00001e96
                          DCD      0x00001ea4
                          DCD      0x00000248
                          DCD      0x00001ec4
                          DCD      0x00001ee8
                          DCD      0x00001ef8
                          DCD      0x00000248
                          DCD      0x00001f2c
                          DCD      0x00001f3a
                          DCD      0x00001f48
                          DCD      0x00000248
                          DCD      0x00001fac
                          DCD      0x00001fda
                          DCD      0x00002008
                          DCD      0x00000248
                          DCD      0x00002038
                          DCD      0x0000203e
                          DCD      0x0000204c
                          DCD      0x00000248
                          DCD      0x0000206c
                          DCD      0x00002094
                          DCD      0x000020a0
                          DCD      0x00000248
                          DCD      0x000020c8
                          DCD      0x00002106
                          DCD      0x00000248
                          DCD      0x00000248
                          DCD      0x00002114
                          DCD      0x00002156
                          DCD      0x00002198
                          DCD      0x00000248
                          DCD      0x000021c6
                          DCD      0x000021ea
                          DCD      0x000021f8
                          DCD      0x00000248
                          DCD      0x0000221c
                          DCD      0x0000225a
                          DCD      0x00002264
                          DCD      0x00000248
                          DCD      0x00002272
                          DCD      0x00002280
                          DCD      0x0000228e
                          DCD      0x00000248
                          DCD      0x00000248
                          DCD      0x000022d6
                          DCD      0x0000231e
                          DCD      0x00000248
                          DCD      0x00002352
                          DCD      0x00002362
                          DCD      0x00002370
                          DCD      0x00000248
                          DCD      0x00000248
                          DCD      0x00002388
                          DCD      0x000023b4
                          DCD      0x00000248
                          DCD      0x000023c4
                          DCD      0x00002402
                          DCD      0x00000248
                          DCD      0x00000248
                          DCD      0x00002410
                          DCD      0x00002452
                          DCD      0x000024f2
                          DCD      0x00000248
                          DCD      0x00002520
                          DCD      0x00002544
                          DCD      0x00000248
                          DCD      0x00000248
                          DCD      0x00002554
                          DCD      0x00002594
                          DCD      0x0000259e
                          DCD      0x00000248
                          DCD      0x000025ac
                          DCD      0x000025ba
                          DCD      0x000025c8
                          DCD      0x00000248
                          DCD      0x00000248
                          DCD      0x0000266c
                          DCD      0x00002712
                          DCD      0x00000248
                          DCD      0x00002746
                          DCD      0x00002756
                          DCD      0x00002764
                          DCD      0x00000248
                          DCD      0x00000248
                          DCD      0x000027b0
                          DCD      0x000027be
                          DCD      0x00000248
000438  7961              LDRB     r1,[r4,#5]  ; P
00043a  4afb              LDR      r2,|L12.2088|
00043c  f0410304          ORR      r3,r1,#4
000440  79a1              LDRB     r1,[r4,#6]  ; S
000442  89e0              LDRH     r0,[r4,#0xe]  ; PC
000444  1e89              SUBS     r1,r1,#2
000446  b2c9              UXTB     r1,r1
000448  440a              ADD      r2,r2,r1
00044a  1c40              ADDS     r0,r0,#1
00044c  f8a20101          STRH     r0,[r2,#0x101]
000450  f0430010          ORR      r0,r3,#0x10
000454  f8820100          STRB     r0,[r2,#0x100]
000458  1e49              SUBS     r1,r1,#1
00045a  71a1              STRB     r1,[r4,#6]
00045c  f0200010          BIC      r0,r0,#0x10
000460  7160              STRB     r0,[r4,#5]
000462  6be0              LDR      r0,[r4,#0x3c]  ; prg_rombank1
000464  f5005040          ADD      r0,r0,#0x3000
000468  f8b00ffe          LDRH     r0,[r0,#0xffe]
00046c  81e0              STRH     r0,[r4,#0xe]
00046e  6c20              LDR      r0,[r4,#0x40]         ;280  ; cpu_clockticks
000470  1dc0              ADDS     r0,r0,#7              ;280
000472  6420              STR      r0,[r4,#0x40]         ;280  ; cpu_clockticks
000474  bd70              POP      {r4-r6,pc}
000476  48ed              LDR      r0,|L12.2092|
000478  f7fffffe          BL       cpu_ora
00047c  6c20              LDR      r0,[r4,#0x40]         ;280  ; cpu_clockticks
00047e  1d80              ADDS     r0,r0,#6              ;280
                  |L12.1152|
000480  6420              STR      r0,[r4,#0x40]         ;280  ; cpu_clockticks
000482  bd70              POP      {r4-r6,pc}
                  |L12.1156|
000484  6c20              LDR      r0,[r4,#0x40]         ;280  ; cpu_clockticks
000486  1c80              ADDS     r0,r0,#2              ;280
000488  e7fa              B        |L12.1152|
00048a  89e0              LDRH     r0,[r4,#0xe]          ;280  ; PC
00048c  4ae6              LDR      r2,|L12.2088|
00048e  1c40              ADDS     r0,r0,#1              ;280
000490  81e0              STRH     r0,[r4,#0xe]          ;280
000492  7a21              LDRB     r1,[r4,#8]            ;280  ; operand
000494  78a3              LDRB     r3,[r4,#2]            ;280  ; A
000496  5c50              LDRB     r0,[r2,r1]            ;280
000498  4318              ORRS     r0,r0,r3              ;280
00049a  5450              STRB     r0,[r2,r1]            ;280
00049c  d003              BEQ      |L12.1190|
                  |L12.1182|
00049e  7960              LDRB     r0,[r4,#5]            ;280  ; P
0004a0  f00000fd          AND      r0,r0,#0xfd           ;280
0004a4  e01c              B        |L12.1248|
                  |L12.1190|
0004a6  7960              LDRB     r0,[r4,#5]            ;280  ; P
0004a8  f0400002          ORR      r0,r0,#2              ;280
0004ac  e018              B        |L12.1248|
                  |L12.1198|
0004ae  6c20              LDR      r0,[r4,#0x40]         ;280  ; cpu_clockticks
0004b0  1cc0              ADDS     r0,r0,#3              ;280
0004b2  e7e5              B        |L12.1152|
0004b4  89e0              LDRH     r0,[r4,#0xe]          ;280  ; PC
0004b6  49dc              LDR      r1,|L12.2088|
0004b8  1c40              ADDS     r0,r0,#1              ;280
0004ba  81e0              STRH     r0,[r4,#0xe]          ;280
0004bc  7a20              LDRB     r0,[r4,#8]            ;280  ; operand
0004be  5c08              LDRB     r0,[r1,r0]            ;280
0004c0  78a1              LDRB     r1,[r4,#2]            ;280  ; A
0004c2  4308              ORRS     r0,r0,r1              ;280
0004c4  70a0              STRB     r0,[r4,#2]            ;280
0004c6  7961              LDRB     r1,[r4,#5]            ;280  ; P
0004c8  bf14              ITE      NE                    ;280
0004ca  f00101fd          ANDNE    r1,r1,#0xfd           ;280
0004ce  f0410102          ORREQ    r1,r1,#2              ;280
0004d2  7161              STRB     r1,[r4,#5]            ;280
0004d4  f0100f80          TST      r0,#0x80              ;280
0004d8  f04185a8          BNE.W    |L12.8236|
0004dc  f000bc2c          B.W      |L12.3384|
                  |L12.1248|
0004e0  7160              STRB     r0,[r4,#5]            ;280
0004e2  e7e4              B        |L12.1198|
0004e4  89e0              LDRH     r0,[r4,#0xe]          ;280  ; PC
0004e6  4ad0              LDR      r2,|L12.2088|
0004e8  1c40              ADDS     r0,r0,#1              ;280
0004ea  81e0              STRH     r0,[r4,#0xe]          ;280
0004ec  7a21              LDRB     r1,[r4,#8]            ;280  ; operand
0004ee  7963              LDRB     r3,[r4,#5]            ;280  ; P
0004f0  5c50              LDRB     r0,[r2,r1]            ;280
0004f2  f00303fe          AND      r3,r3,#0xfe           ;280
0004f6  ea4313d0          ORR      r3,r3,r0,LSR #7       ;280
0004fa  0040              LSLS     r0,r0,#1              ;280
0004fc  7163              STRB     r3,[r4,#5]            ;280
0004fe  f01000ff          ANDS     r0,r0,#0xff           ;280
000502  5450              STRB     r0,[r2,r1]            ;280
000504  bf14              ITE      NE                    ;280
000506  f00301fd          ANDNE    r1,r3,#0xfd           ;280
00050a  f0430102          ORREQ    r1,r3,#2              ;280
00050e  7161              STRB     r1,[r4,#5]            ;280
000510  f0100f80          TST      r0,#0x80              ;280
000514  b2c8              UXTB     r0,r1                 ;280
000516  bf14              ITE      NE                    ;280
000518  f0400080          ORRNE    r0,r0,#0x80           ;280
00051c  f000007f          ANDEQ    r0,r0,#0x7f           ;280
                  |L12.1312|
000520  7160              STRB     r0,[r4,#5]            ;280
000522  6c20              LDR      r0,[r4,#0x40]         ;280  ; cpu_clockticks
000524  1d40              ADDS     r0,r0,#5              ;280
000526  e7ab              B        |L12.1152|
000528  4abf              LDR      r2,|L12.2088|
00052a  79a0              LDRB     r0,[r4,#6]            ;280  ; S
00052c  7961              LDRB     r1,[r4,#5]            ;280  ; P
00052e  4402              ADD      r2,r2,r0              ;280
000530  1e40              SUBS     r0,r0,#1              ;280
000532  f8821100          STRB     r1,[r2,#0x100]        ;280
000536  71a0              STRB     r0,[r4,#6]            ;280
000538  6c20              LDR      r0,[r4,#0x40]         ;280  ; cpu_clockticks
00053a  1cc0              ADDS     r0,r0,#3              ;280
00053c  e7a0              B        |L12.1152|
00053e  48bc              LDR      r0,|L12.2096|
000540  f7fffffe          BL       cpu_ora
000544  6c20              LDR      r0,[r4,#0x40]         ;280  ; cpu_clockticks
000546  1cc0              ADDS     r0,r0,#3              ;280
000548  e79a              B        |L12.1152|
00054a  7960              LDRB     r0,[r4,#5]            ;280  ; P
00054c  f00001fe          AND      r1,r0,#0xfe           ;280
000550  78a0              LDRB     r0,[r4,#2]            ;280  ; A
000552  ea4111d0          ORR      r1,r1,r0,LSR #7       ;280
000556  0040              LSLS     r0,r0,#1              ;280
000558  7161              STRB     r1,[r4,#5]            ;280
00055a  f01000ff          ANDS     r0,r0,#0xff           ;280
00055e  70a0              STRB     r0,[r4,#2]            ;280
000560  bf14              ITE      NE                    ;280
000562  f00101fd          ANDNE    r1,r1,#0xfd           ;280
000566  f0410102          ORREQ    r1,r1,#2              ;280
00056a  7161              STRB     r1,[r4,#5]            ;280
00056c  f0100f80          TST      r0,#0x80              ;280
000570  d002              BEQ      |L12.1400|
                  |L12.1394|
000572  b2c8              UXTB     r0,r1                 ;280
000574  f000bdba          B.W      |L12.4332|
                  |L12.1400|
000578  b2c8              UXTB     r0,r1                 ;280
00057a  f000bdbb          B.W      |L12.4340|
00057e  48ad              LDR      r0,|L12.2100|
000580  f7fffffe          BL       cpu_ora
000584  6c20              LDR      r0,[r4,#0x40]         ;280  ; cpu_clockticks
000586  1c80              ADDS     r0,r0,#2              ;280
000588  e77a              B        |L12.1152|
00058a  bf00              NOP                            ;280
00058c  f7fffffe          BL       cpu_abs
000590  4605              MOV      r5,r0                 ;280
000592  f7fffffe          BL       cpu_getmemory
000596  78a1              LDRB     r1,[r4,#2]            ;280  ; A
000598  b2c0              UXTB     r0,r0                 ;280
00059a  ea400201          ORR      r2,r0,r1              ;280
00059e  f4054370          AND      r3,r5,#0xf000         ;280
0005a2  2100              MOVS     r1,#0                 ;280
0005a4  131b              ASRS     r3,r3,#12             ;280
0005a6  4628              MOV      r0,r5                 ;280
0005a8  2b05              CMP      r3,#5                 ;280
0005aa  f0808133          BCS.W    |L12.2068|
0005ae  e8dff003          TBB      [pc,r3]               ;280
0005b2  0303              DCB      0x03,0x03
0005b4  09099900          DCB      0x09,0x09,0x99,0x00
0005b8  499b              LDR      r1,|L12.2088|
0005ba  f3c5000a          UBFX     r0,r5,#0,#11          ;280
0005be  540a              STRB     r2,[r1,r0]            ;280
0005c0  f000b928          B.W      |L12.2068|
0005c4  f0050007          AND      r0,r5,#7              ;280
0005c8  2808              CMP      r0,#8                 ;280
0005ca  f0808123          BCS.W    |L12.2068|
0005ce  e8dff000          TBB      [pc,r0]               ;280
0005d2  0407              DCB      0x04,0x07
0005d4  880b101b          DCB      0x88,0x0b,0x10,0x1b
0005d8  2b37              DCB      0x2b,0x37
0005da  4897              LDR      r0,|L12.2104|
0005dc  f000b919          B.W      |L12.2066|
0005e0  4895              LDR      r0,|L12.2104|
0005e2  7042              STRB     r2,[r0,#1]            ;280
0005e4  f000b916          B.W      |L12.2068|
0005e8  4894              LDR      r0,|L12.2108|
0005ea  f8802100          STRB     r2,[r0,#0x100]        ;280
0005ee  f000b911          B.W      |L12.2068|
0005f2  4892              LDR      r0,|L12.2108|
0005f4  f8901100          LDRB     r1,[r0,#0x100]        ;280  ; Spr_Mem
0005f8  5442              STRB     r2,[r0,r1]            ;280
0005fa  f8901100          LDRB     r1,[r0,#0x100]        ;280  ; Spr_Mem
0005fe  1c49              ADDS     r1,r1,#1              ;280
000600  f8801100          STRB     r1,[r0,#0x100]        ;280
000604  f000b906          B.W      |L12.2068|
000608  488d              LDR      r0,|L12.2112|
00060a  7801              LDRB     r1,[r0,#0]            ;280  ; PPU_Latch_Flag
00060c  2900              CMP      r1,#0                 ;280
00060e  bf08              IT       EQ                    ;280
000610  4b8c              LDREQ    r3,|L12.2116|
000612  d003              BEQ      |L12.1564|
000614  2aef              CMP      r2,#0xef              ;280
000616  bf88              IT       HI                    ;280
000618  2200              MOVHI    r2,#0                 ;280
00061a  4b8b              LDR      r3,|L12.2120|
                  |L12.1564|
00061c  f0810101          EOR      r1,r1,#1              ;280
000620  701a              STRB     r2,[r3,#0]            ;280
000622  7001              STRB     r1,[r0,#0]            ;280
000624  f000b8f6          B.W      |L12.2068|
000628  4888              LDR      r0,|L12.2124|
00062a  7801              LDRB     r1,[r0,#0]            ;280  ; PPU_Mem
00062c  eb022101          ADD      r1,r2,r1,LSL #8       ;280
000630  8001              STRH     r1,[r0,#0]            ;280
000632  4883              LDR      r0,|L12.2112|
000634  7801              LDRB     r1,[r0,#0]            ;280  ; PPU_Latch_Flag
000636  f0810101          EOR      r1,r1,#1              ;280
00063a  7001              STRB     r1,[r0,#0]            ;280
00063c  f000b8ea          B.W      |L12.2068|
000640  4e82              LDR      r6,|L12.2124|
000642  8830              LDRH     r0,[r6,#0]            ;280  ; PPU_Mem
000644  f4104170          ANDS     r1,r0,#0xf000         ;280
000648  bf18              IT       NE                    ;280
00064a  f5b15f80          CMPNE    r1,#0x1000            ;280
00064e  d03f              BEQ      |L12.1744|
000650  f5b15f00          CMP      r1,#0x2000            ;280
000654  d003              BEQ      |L12.1630|
000656  f5b15f40          CMP      r1,#0x3000            ;280
00065a  d019              BEQ      |L12.1680|
00065c  e038              B        |L12.1744|
                  |L12.1630|
00065e  f3c0000b          UBFX     r0,r0,#0,#12          ;280
000662  f5b06f40          CMP      r0,#0xc00             ;280
000666  bf84              ITT      HI                    ;280
000668  69b1              LDRHI    r1,[r6,#0x18]         ;280  ; PPU_Mem
00066a  f5a06040          SUBHI    r0,r0,#0xc00          ;280
00066e  d80d              BHI      |L12.1676|
000670  f5b06f00          CMP      r0,#0x800             ;280
000674  bf84              ITT      HI                    ;280
000676  6971              LDRHI    r1,[r6,#0x14]         ;280  ; PPU_Mem
000678  f5a06000          SUBHI    r0,r0,#0x800          ;280
00067c  d806              BHI      |L12.1676|
00067e  f5b06f80          CMP      r0,#0x400             ;280
000682  bf86              ITTE     HI                    ;280
000684  6931              LDRHI    r1,[r6,#0x10]         ;280  ; PPU_Mem
000686  f5a06080          SUBHI    r0,r0,#0x400          ;280
00068a  68f1              LDRLS    r1,[r6,#0xc]          ;280  ; PPU_Mem
                  |L12.1676|
00068c  540a              STRB     r2,[r1,r0]            ;280
00068e  e01f              B        |L12.1744|
                  |L12.1680|
000690  f000011f          AND      r1,r0,#0x1f           ;280
000694  f000000f          AND      r0,r0,#0xf            ;280
000698  290f              CMP      r1,#0xf               ;280
00069a  4430              ADD      r0,r0,r6              ;280
00069c  d915              BLS      |L12.1738|
00069e  f880202c          STRB     r2,[r0,#0x2c]         ;280
0006a2  7830              LDRB     r0,[r6,#0]            ;280  ; PPU_Mem
0006a4  f0100f03          TST      r0,#3                 ;280
0006a8  d112              BNE      |L12.1744|
0006aa  7732              STRB     r2,[r6,#0x1c]         ;280
0006ac  f886202c          STRB     r2,[r6,#0x2c]         ;280
0006b0  f8862020          STRB     r2,[r6,#0x20]         ;280
0006b4  f8862030          STRB     r2,[r6,#0x30]         ;280
0006b8  f8862024          STRB     r2,[r6,#0x24]         ;280
0006bc  f8862034          STRB     r2,[r6,#0x34]         ;280
0006c0  f8862028          STRB     r2,[r6,#0x28]         ;280
0006c4  f8862038          STRB     r2,[r6,#0x38]         ;280
0006c8  e002              B        |L12.1744|
                  |L12.1738|
0006ca  7702              STRB     r2,[r0,#0x1c]         ;280
0006cc  f7fffffe          BL       premap_palette
                  |L12.1744|
0006d0  4859              LDR      r0,|L12.2104|
0006d2  7800              LDRB     r0,[r0,#0]            ;280  ; PPU_Reg
0006d4  f0100f04          TST      r0,#4                 ;280
0006d8  8830              LDRH     r0,[r6,#0]            ;280  ; PPU_Mem
0006da  bf14              ITE      NE                    ;280
0006dc  3020              ADDNE    r0,r0,#0x20           ;280
0006de  1c40              ADDEQ    r0,r0,#1              ;280
0006e0  8030              STRH     r0,[r6,#0]            ;280
0006e2  e097              B        |L12.2068|
0006e4  f5a04380          SUB      r3,r0,#0x4000         ;280
0006e8  3b14              SUBS     r3,r3,#0x14           ;280
0006ea  d004              BEQ      |L12.1782|
0006ec  f5a54380          SUB      r3,r5,#0x4000         ;280
0006f0  3b16              SUBS     r3,r3,#0x16           ;280
0006f2  d03f              BEQ      |L12.1908|
0006f4  e08e              B        |L12.2068|
                  |L12.1782|
0006f6  6c20              LDR      r0,[r4,#0x40]         ;280  ; cpu_clockticks
0006f8  2100              MOVS     r1,#0                 ;280
0006fa  f5a07000          SUB      r0,r0,#0x200          ;280
0006fe  6420              STR      r0,[r4,#0x40]         ;280  ; cpu_clockticks
000700  0910              LSRS     r0,r2,#4              ;280
000702  2810              CMP      r0,#0x10              ;280
000704  d218              BCS      |L12.1848|
000706  e8dff000          TBB      [pc,r0]               ;280
00070a  0808              DCB      0x08,0x08
00070c  17171717          DCB      0x17,0x17,0x17,0x17
000710  85850c0c          DCB      0x85,0x85,0x0c,0x0c
000714  0c0c1212          DCB      0x0c,0x0c,0x12,0x12
000718  1212              DCB      0x12,0x12
00071a  4843              LDR      r0,|L12.2088|
00071c  eb002102          ADD      r1,r0,r2,LSL #8       ;280
000720  e00a              B        |L12.1848|
000722  6ba0              LDR      r0,[r4,#0x38]         ;280  ; prg_rombank0
000724  eb002002          ADD      r0,r0,r2,LSL #8       ;280
000728  f5a04100          SUB      r1,r0,#0x8000         ;280
00072c  e004              B        |L12.1848|
00072e  6be0              LDR      r0,[r4,#0x3c]         ;280  ; prg_rombank1
000730  eb002002          ADD      r0,r0,r2,LSL #8       ;280
000734  f5a04140          SUB      r1,r0,#0xc000         ;280
                  |L12.1848|
000738  f8dfc100          LDR      r12,|L12.2108|
00073c  ebac0001          SUB      r0,r12,r1             ;280
000740  2800              CMP      r0,#0                 ;280
000742  dd04              BLE      |L12.1870|
000744  f5b07f80          CMP      r0,#0x100             ;280
000748  bfb8              IT       LT                    ;280
00074a  2200              MOVLT    r2,#0                 ;280
00074c  db05              BLT      |L12.1882|
                  |L12.1870|
00074e  f44f7280          MOV      r2,#0x100             ;280
000752  483a              LDR      r0,|L12.2108|
000754  f7fffffe          BL       __aeabi_memmove
000758  e05c              B        |L12.2068|
                  |L12.1882|
00075a  5c88              LDRB     r0,[r1,r2]            ;280
00075c  f80c0002          STRB     r0,[r12,r2]           ;280
000760  1888              ADDS     r0,r1,r2              ;280
000762  eb0c0302          ADD      r3,r12,r2             ;280
000766  7840              LDRB     r0,[r0,#1]            ;280
000768  1c92              ADDS     r2,r2,#2              ;280
00076a  7058              STRB     r0,[r3,#1]            ;280
00076c  f5b27f80          CMP      r2,#0x100             ;280
000770  dbf3              BLT      |L12.1882|
000772  e04f              B        |L12.2068|
                  |L12.1908|
000774  b3ea              CBZ      r2,|L12.2034|
000776  4836              LDR      r0,|L12.2128|
000778  7001              STRB     r1,[r0,#0]            ;280
00077a  4836              LDR      r0,|L12.2132|
00077c  6900              LDR      r0,[r0,#0x10]         ;280
00077e  43c0              MVNS     r0,r0                 ;280
000780  b281              UXTH     r1,r0                 ;280
000782  4835              LDR      r0,|L12.2136|
000784  8803              LDRH     r3,[r0,#0]            ;280  ; joys
000786  f5b36f40          CMP      r3,#0xc00             ;280
00078a  bf94              ITE      LS                    ;280
00078c  f04f0c00          MOVLS    r12,#0                ;280
000790  f04f0c01          MOVHI    r12,#1                ;280
000794  ea41410c          ORR      r1,r1,r12,LSL #16     ;280
000798  f5b36f80          CMP      r3,#0x400             ;280
00079c  bf34              ITE      CC                    ;280
00079e  2301              MOVCC    r3,#1                 ;280
0007a0  2300              MOVCS    r3,#0                 ;280
0007a2  ea414343          ORR      r3,r1,r3,LSL #17      ;280
0007a6  8841              LDRH     r1,[r0,#2]            ;280  ; joys
0007a8  f5b16f40          CMP      r1,#0xc00             ;280
0007ac  bf8c              ITE      HI                    ;280
0007ae  f04f0c01          MOVHI    r12,#1                ;280
0007b2  f04f0c00          MOVLS    r12,#0                ;280
0007b6  ea43438c          ORR      r3,r3,r12,LSL #18     ;280
0007ba  f5b16f80          CMP      r1,#0x400             ;280
0007be  bf34              ITE      CC                    ;280
0007c0  2101              MOVCC    r1,#1                 ;280
0007c2  2100              MOVCS    r1,#0                 ;280
0007c4  ea4343c1          ORR      r3,r3,r1,LSL #19      ;280
0007c8  88c1              LDRH     r1,[r0,#6]            ;280  ; joys
0007ca  f5b16f40          CMP      r1,#0xc00             ;280
0007ce  bf8c              ITE      HI                    ;280
0007d0  f04f0c01          MOVHI    r12,#1                ;280
0007d4  f04f0c00          MOVLS    r12,#0                ;280
0007d8  ea43530c          ORR      r3,r3,r12,LSL #20     ;280
0007dc  f5b16f80          CMP      r1,#0x400             ;280
0007e0  bf34              ITE      CC                    ;280
0007e2  2101              MOVCC    r1,#1                 ;280
0007e4  2100              MOVCS    r1,#0                 ;280
0007e6  ea435141          ORR      r1,r3,r1,LSL #21      ;280
0007ea  8880              LDRH     r0,[r0,#4]            ;280  ; joys
0007ec  f5b06f40          CMP      r0,#0xc00             ;280
0007f0  e000              B        |L12.2036|
                  |L12.2034|
0007f2  e00d              B        |L12.2064|
                  |L12.2036|
0007f4  bf8c              ITE      HI                    ;280
0007f6  2301              MOVHI    r3,#1                 ;280
0007f8  2300              MOVLS    r3,#0                 ;280
0007fa  ea415183          ORR      r1,r1,r3,LSL #22      ;280
0007fe  f5b06f80          CMP      r0,#0x400             ;280
000802  bf34              ITE      CC                    ;280
000804  2001              MOVCC    r0,#1                 ;280
000806  2000              MOVCS    r0,#0                 ;280
000808  ea4150c0          ORR      r0,r1,r0,LSL #23      ;280
00080c  6160              STR      r0,[r4,#0x14]         ;280  ; joypad_state
00080e  6160              STR      r0,[r4,#0x14]         ;280  ; joypad_state
                  |L12.2064|
000810  4812              LDR      r0,|L12.2140|
                  |L12.2066|
000812  7002              STRB     r2,[r0,#0]            ;280
                  |L12.2068|
000814  4628              MOV      r0,r5                 ;280
000816  f7fffffe          BL       cpu_getmemory
00081a  b120              CBZ      r0,|L12.2086|
                  |L12.2076|
00081c  7960              LDRB     r0,[r4,#5]            ;280  ; P
00081e  f00000fd          AND      r0,r0,#0xfd           ;280
000822  f000ba13          B.W      |L12.3148|
                  |L12.2086|
000826  e01b              B        |L12.2144|
                  |L12.2088|
                          DCD      ||.bss||
                  |L12.2092|
                          DCD      cpu_indx
                  |L12.2096|
                          DCD      cpu_immediate
                  |L12.2100|
                          DCD      cpu_implied
                  |L12.2104|
                          DCD      PPU_Reg
                  |L12.2108|
                          DCD      Spr_Mem
                  |L12.2112|
                          DCD      PPU_Latch_Flag
                  |L12.2116|
                          DCD      PPU_BG_HScrlOrg
                  |L12.2120|
                          DCD      PPU_BG_VScrlOrg
                  |L12.2124|
                          DCD      PPU_Mem
                  |L12.2128|
                          DCD      ||.data||+0x9
                  |L12.2132|
                          DCD      0x40021000
                  |L12.2136|
                          DCD      joys
                  |L12.2140|
                          DCD      ||.data||+0xb
                  |L12.2144|
000860  7960              LDRB     r0,[r4,#5]            ;280  ; P
000862  f0400002          ORR      r0,r0,#2              ;280
000866  f000b9f1          B.W      |L12.3148|
                  |L12.2154|
00086a  6c20              LDR      r0,[r4,#0x40]         ;280  ; cpu_clockticks
00086c  1d00              ADDS     r0,r0,#4              ;280
00086e  e607              B        |L12.1152|
000870  48f7              LDR      r0,|L12.3152|
000872  f7fffffe          BL       cpu_ora
000876  e7f8              B        |L12.2154|
000878  48f5              LDR      r0,|L12.3152|
00087a  f7fffffe          BL       cpu_asl
00087e  6c20              LDR      r0,[r4,#0x40]         ;280  ; cpu_clockticks
000880  1d80              ADDS     r0,r0,#6              ;280
000882  e5fd              B        |L12.1152|
000884  7960              LDRB     r0,[r4,#5]            ;280  ; P
000886  f0100f80          TST      r0,#0x80              ;280
00088a  f00082d8          BEQ.W    |L12.3646|
00088e  f000bae2          B.W      |L12.3670|
                  |L12.2194|
000892  1c80              ADDS     r0,r0,#2              ;280
000894  e5f4              B        |L12.1152|
000896  48ef              LDR      r0,|L12.3156|
000898  f7fffffe          BL       cpu_ora
00089c  6c20              LDR      r0,[r4,#0x40]         ;280  ; cpu_clockticks
00089e  1d40              ADDS     r0,r0,#5              ;280
0008a0  e5ee              B        |L12.1152|
0008a2  89e0              LDRH     r0,[r4,#0xe]          ;280  ; PC
0008a4  49ec              LDR      r1,|L12.3160|
0008a6  1c40              ADDS     r0,r0,#1              ;280
0008a8  81e0              STRH     r0,[r4,#0xe]          ;280
0008aa  7a20              LDRB     r0,[r4,#8]            ;280  ; operand
0008ac  5c08              LDRB     r0,[r1,r0]            ;280
0008ae  f7fffffe          BL       cpu_getmemory
0008b2  78a1              LDRB     r1,[r4,#2]            ;280  ; A
0008b4  4308              ORRS     r0,r0,r1              ;280
0008b6  f01000ff          ANDS     r0,r0,#0xff           ;280
0008ba  70a0              STRB     r0,[r4,#2]            ;280
0008bc  7961              LDRB     r1,[r4,#5]            ;280  ; P
0008be  bf14              ITE      NE                    ;280
0008c0  f00101fd          ANDNE    r1,r1,#0xfd           ;280
0008c4  f0410102          ORREQ    r1,r1,#2              ;280
0008c8  7161              STRB     r1,[r4,#5]            ;280
0008ca  f0100f80          TST      r0,#0x80              ;280
0008ce  f04183ad          BNE.W    |L12.8236|
0008d2  f000ba31          B.W      |L12.3384|
0008d6  89e0              LDRH     r0,[r4,#0xe]          ;280  ; PC
0008d8  4adf              LDR      r2,|L12.3160|
0008da  1c40              ADDS     r0,r0,#1              ;280
0008dc  81e0              STRH     r0,[r4,#0xe]          ;280
0008de  7a21              LDRB     r1,[r4,#8]            ;280  ; operand
0008e0  78a3              LDRB     r3,[r4,#2]            ;280  ; A
0008e2  5c50              LDRB     r0,[r2,r1]            ;280
0008e4  f08303ff          EOR      r3,r3,#0xff           ;280
0008e8  4018              ANDS     r0,r0,r3              ;280
0008ea  5450              STRB     r0,[r2,r1]            ;280
0008ec  f43faddb          BEQ      |L12.1190|
0008f0  e5d5              B        |L12.1182|
0008f2  89e0              LDRH     r0,[r4,#0xe]          ;280  ; PC
0008f4  1c40              ADDS     r0,r0,#1              ;280
0008f6  81e0              STRH     r0,[r4,#0xe]          ;280
0008f8  7a20              LDRB     r0,[r4,#8]            ;280  ; operand
0008fa  78e1              LDRB     r1,[r4,#3]            ;280  ; X
0008fc  4408              ADD      r0,r0,r1              ;280
0008fe  49d6              LDR      r1,|L12.3160|
000900  b2c0              UXTB     r0,r0                 ;280
000902  5c08              LDRB     r0,[r1,r0]            ;280
000904  78a1              LDRB     r1,[r4,#2]            ;280  ; A
000906  4308              ORRS     r0,r0,r1              ;280
000908  70a0              STRB     r0,[r4,#2]            ;280
00090a  7961              LDRB     r1,[r4,#5]            ;280  ; P
00090c  bf14              ITE      NE                    ;280
00090e  f00101fd          ANDNE    r1,r1,#0xfd           ;280
000912  f0410102          ORREQ    r1,r1,#2              ;280
000916  7161              STRB     r1,[r4,#5]            ;280
000918  f0100f80          TST      r0,#0x80              ;280
00091c  d004              BEQ      |L12.2344|
                  |L12.2334|
00091e  b2c8              UXTB     r0,r1                 ;280
                  |L12.2336|
000920  f0400080          ORR      r0,r0,#0x80           ;280
000924  f000b992          B.W      |L12.3148|
                  |L12.2344|
000928  f001007f          AND      r0,r1,#0x7f           ;280
00092c  f000b98e          B.W      |L12.3148|
000930  89e0              LDRH     r0,[r4,#0xe]          ;280  ; PC
000932  4bc9              LDR      r3,|L12.3160|
000934  1c40              ADDS     r0,r0,#1              ;280
000936  81e0              STRH     r0,[r4,#0xe]          ;280
000938  7a20              LDRB     r0,[r4,#8]            ;280  ; operand
00093a  78e1              LDRB     r1,[r4,#3]            ;280  ; X
00093c  7962              LDRB     r2,[r4,#5]            ;280  ; P
00093e  4408              ADD      r0,r0,r1              ;280
000940  b2c1              UXTB     r1,r0                 ;280
000942  f00202fe          AND      r2,r2,#0xfe           ;280
000946  5c58              LDRB     r0,[r3,r1]            ;280
000948  ea4212d0          ORR      r2,r2,r0,LSR #7       ;280
00094c  0040              LSLS     r0,r0,#1              ;280
00094e  7162              STRB     r2,[r4,#5]            ;280
000950  f01000ff          ANDS     r0,r0,#0xff           ;280
000954  5458              STRB     r0,[r3,r1]            ;280
000956  bf14              ITE      NE                    ;280
000958  f00201fd          ANDNE    r1,r2,#0xfd           ;280
00095c  f0420102          ORREQ    r1,r2,#2              ;280
000960  7161              STRB     r1,[r4,#5]            ;280
000962  f0100f80          TST      r0,#0x80              ;280
000966  b2c8              UXTB     r0,r1                 ;280
000968  bf14              ITE      NE                    ;280
00096a  f0400080          ORRNE    r0,r0,#0x80           ;280
00096e  f000007f          ANDEQ    r0,r0,#0x7f           ;280
                  |L12.2418|
000972  7160              STRB     r0,[r4,#5]            ;280
000974  6c20              LDR      r0,[r4,#0x40]         ;280  ; cpu_clockticks
000976  1d80              ADDS     r0,r0,#6              ;280
000978  e582              B        |L12.1152|
00097a  7960              LDRB     r0,[r4,#5]            ;280  ; P
00097c  f0200001          BIC      r0,r0,#1              ;280
000980  f000beaa          B.W      |L12.5848|
000984  48b5              LDR      r0,|L12.3164|
000986  f7fffffe          BL       cpu_ora
00098a  6c20              LDR      r0,[r4,#0x40]         ;280  ; cpu_clockticks
00098c  1d00              ADDS     r0,r0,#4              ;280
00098e  e577              B        |L12.1152|
000990  78a0              LDRB     r0,[r4,#2]            ;280  ; A
000992  1c40              ADDS     r0,r0,#1              ;280
000994  f01000ff          ANDS     r0,r0,#0xff           ;280
000998  70a0              STRB     r0,[r4,#2]            ;280
00099a  7961              LDRB     r1,[r4,#5]            ;280  ; P
00099c  bf14              ITE      NE                    ;280
00099e  f00101fd          ANDNE    r1,r1,#0xfd           ;280
0009a2  f0410102          ORREQ    r1,r1,#2              ;280
0009a6  7161              STRB     r1,[r4,#5]            ;280
0009a8  f0100f80          TST      r0,#0x80              ;280
0009ac  bf04              ITT      EQ                    ;280
0009ae  b2c8              UXTBEQ   r0,r1                 ;280
0009b0  f000007f          ANDEQ    r0,r0,#0x7f           ;280
0009b4  f0008690          BEQ.W    |L12.5848|
                  |L12.2488|
0009b8  b2c8              UXTB     r0,r1                 ;280
0009ba  f0400080          ORR      r0,r0,#0x80           ;280
0009be  f000be8b          B.W      |L12.5848|
0009c2  bf00              NOP                            ;280
0009c4  f7fffffe          BL       cpu_abs
0009c8  4605              MOV      r5,r0                 ;280
0009ca  f7fffffe          BL       cpu_getmemory
0009ce  78a1              LDRB     r1,[r4,#2]            ;280  ; A
0009d0  b2c0              UXTB     r0,r0                 ;280
0009d2  f08101ff          EOR      r1,r1,#0xff           ;280
0009d6  ea010200          AND      r2,r1,r0              ;280
0009da  f4054370          AND      r3,r5,#0xf000         ;280
0009de  2100              MOVS     r1,#0                 ;280
0009e0  131b              ASRS     r3,r3,#12             ;280
0009e2  4628              MOV      r0,r5                 ;280
0009e4  2b05              CMP      r3,#5                 ;280
0009e6  f080812a          BCS.W    |L12.3134|
0009ea  e8dff003          TBB      [pc,r3]               ;280
0009ee  0303              DCB      0x03,0x03
0009f0  08089200          DCB      0x08,0x08,0x92,0x00
0009f4  4998              LDR      r1,|L12.3160|
0009f6  f3c5000a          UBFX     r0,r5,#0,#11          ;280
0009fa  540a              STRB     r2,[r1,r0]            ;280
0009fc  e11f              B        |L12.3134|
0009fe  f0050007          AND      r0,r5,#7              ;280
000a02  2808              CMP      r0,#8                 ;280
000a04  d277              BCS      |L12.2806|
000a06  e8dff000          TBB      [pc,r0]               ;280
000a0a  0406              DCB      0x04,0x06
000a0c  76090d17          DCB      0x76,0x09,0x0d,0x17
000a10  2631              DCB      0x26,0x31
000a12  4893              LDR      r0,|L12.3168|
000a14  e112              B        |L12.3132|
000a16  4892              LDR      r0,|L12.3168|
000a18  7042              STRB     r2,[r0,#1]            ;280
000a1a  e110              B        |L12.3134|
000a1c  4891              LDR      r0,|L12.3172|
000a1e  f8802100          STRB     r2,[r0,#0x100]        ;280
000a22  e10c              B        |L12.3134|
000a24  488f              LDR      r0,|L12.3172|
000a26  f8901100          LDRB     r1,[r0,#0x100]        ;280  ; Spr_Mem
000a2a  5442              STRB     r2,[r0,r1]            ;280
000a2c  f8901100          LDRB     r1,[r0,#0x100]        ;280  ; Spr_Mem
000a30  1c49              ADDS     r1,r1,#1              ;280
000a32  f8801100          STRB     r1,[r0,#0x100]        ;280
000a36  e102              B        |L12.3134|
000a38  488b              LDR      r0,|L12.3176|
000a3a  7801              LDRB     r1,[r0,#0]            ;280  ; PPU_Latch_Flag
000a3c  2900              CMP      r1,#0                 ;280
000a3e  bf08              IT       EQ                    ;280
000a40  4b8a              LDREQ    r3,|L12.3180|
000a42  d003              BEQ      |L12.2636|
000a44  2aef              CMP      r2,#0xef              ;280
000a46  bf88              IT       HI                    ;280
000a48  2200              MOVHI    r2,#0                 ;280
000a4a  4b89              LDR      r3,|L12.3184|
                  |L12.2636|
000a4c  f0810101          EOR      r1,r1,#1              ;280
000a50  701a              STRB     r2,[r3,#0]            ;280
000a52  7001              STRB     r1,[r0,#0]            ;280
000a54  e0f3              B        |L12.3134|
000a56  4887              LDR      r0,|L12.3188|
000a58  7801              LDRB     r1,[r0,#0]            ;280  ; PPU_Mem
000a5a  eb022101          ADD      r1,r2,r1,LSL #8       ;280
000a5e  8001              STRH     r1,[r0,#0]            ;280
000a60  4881              LDR      r0,|L12.3176|
000a62  7801              LDRB     r1,[r0,#0]            ;280  ; PPU_Latch_Flag
000a64  f0810101          EOR      r1,r1,#1              ;280
000a68  7001              STRB     r1,[r0,#0]            ;280
000a6a  e0e8              B        |L12.3134|
000a6c  4e81              LDR      r6,|L12.3188|
000a6e  8830              LDRH     r0,[r6,#0]            ;280  ; PPU_Mem
000a70  f4104170          ANDS     r1,r0,#0xf000         ;280
000a74  bf18              IT       NE                    ;280
000a76  f5b15f80          CMPNE    r1,#0x1000            ;280
000a7a  d040              BEQ      |L12.2814|
000a7c  f5b15f00          CMP      r1,#0x2000            ;280
000a80  d003              BEQ      |L12.2698|
000a82  f5b15f40          CMP      r1,#0x3000            ;280
000a86  d019              BEQ      |L12.2748|
000a88  e039              B        |L12.2814|
                  |L12.2698|
000a8a  f3c0000b          UBFX     r0,r0,#0,#12          ;280
000a8e  f5b06f40          CMP      r0,#0xc00             ;280
000a92  bf84              ITT      HI                    ;280
000a94  69b1              LDRHI    r1,[r6,#0x18]         ;280  ; PPU_Mem
000a96  f5a06040          SUBHI    r0,r0,#0xc00          ;280
000a9a  d80d              BHI      |L12.2744|
000a9c  f5b06f00          CMP      r0,#0x800             ;280
000aa0  bf84              ITT      HI                    ;280
000aa2  6971              LDRHI    r1,[r6,#0x14]         ;280  ; PPU_Mem
000aa4  f5a06000          SUBHI    r0,r0,#0x800          ;280
000aa8  d806              BHI      |L12.2744|
000aaa  f5b06f80          CMP      r0,#0x400             ;280
000aae  bf86              ITTE     HI                    ;280
000ab0  6931              LDRHI    r1,[r6,#0x10]         ;280  ; PPU_Mem
000ab2  f5a06080          SUBHI    r0,r0,#0x400          ;280
000ab6  68f1              LDRLS    r1,[r6,#0xc]          ;280  ; PPU_Mem
                  |L12.2744|
000ab8  540a              STRB     r2,[r1,r0]            ;280
000aba  e020              B        |L12.2814|
                  |L12.2748|
000abc  f000011f          AND      r1,r0,#0x1f           ;280
000ac0  f000000f          AND      r0,r0,#0xf            ;280
000ac4  290f              CMP      r1,#0xf               ;280
000ac6  4430              ADD      r0,r0,r6              ;280
000ac8  d916              BLS      |L12.2808|
000aca  f880202c          STRB     r2,[r0,#0x2c]         ;280
000ace  7830              LDRB     r0,[r6,#0]            ;280  ; PPU_Mem
000ad0  f0100f03          TST      r0,#3                 ;280
000ad4  d113              BNE      |L12.2814|
000ad6  7732              STRB     r2,[r6,#0x1c]         ;280
000ad8  f886202c          STRB     r2,[r6,#0x2c]         ;280
000adc  f8862020          STRB     r2,[r6,#0x20]         ;280
000ae0  f8862030          STRB     r2,[r6,#0x30]         ;280
000ae4  f8862024          STRB     r2,[r6,#0x24]         ;280
000ae8  f8862034          STRB     r2,[r6,#0x34]         ;280
000aec  f8862028          STRB     r2,[r6,#0x28]         ;280
000af0  f8862038          STRB     r2,[r6,#0x38]         ;280
000af4  e003              B        |L12.2814|
                  |L12.2806|
000af6  e0a2              B        |L12.3134|
                  |L12.2808|
000af8  7702              STRB     r2,[r0,#0x1c]         ;280
000afa  f7fffffe          BL       premap_palette
                  |L12.2814|
000afe  4858              LDR      r0,|L12.3168|
000b00  7800              LDRB     r0,[r0,#0]            ;280  ; PPU_Reg
000b02  f0100f04          TST      r0,#4                 ;280
000b06  8830              LDRH     r0,[r6,#0]            ;280  ; PPU_Mem
000b08  bf14              ITE      NE                    ;280
000b0a  3020              ADDNE    r0,r0,#0x20           ;280
000b0c  1c40              ADDEQ    r0,r0,#1              ;280
000b0e  8030              STRH     r0,[r6,#0]            ;280
000b10  e095              B        |L12.3134|
000b12  f5a04380          SUB      r3,r0,#0x4000         ;280
000b16  3b14              SUBS     r3,r3,#0x14           ;280
000b18  d004              BEQ      |L12.2852|
000b1a  f5a54380          SUB      r3,r5,#0x4000         ;280
000b1e  3b16              SUBS     r3,r3,#0x16           ;280
000b20  d03d              BEQ      |L12.2974|
000b22  e08c              B        |L12.3134|
                  |L12.2852|
000b24  6c20              LDR      r0,[r4,#0x40]         ;280  ; cpu_clockticks
000b26  2100              MOVS     r1,#0                 ;280
000b28  f5a07000          SUB      r0,r0,#0x200          ;280
000b2c  6420              STR      r0,[r4,#0x40]         ;280  ; cpu_clockticks
000b2e  0910              LSRS     r0,r2,#4              ;280
000b30  2810              CMP      r0,#0x10              ;280
000b32  d218              BCS      |L12.2918|
000b34  e8dff000          TBB      [pc,r0]               ;280
000b38  08081717          DCB      0x08,0x08,0x17,0x17
000b3c  17178383          DCB      0x17,0x17,0x83,0x83
000b40  0c0c0c0c          DCB      0x0c,0x0c,0x0c,0x0c
000b44  12121212          DCB      0x12,0x12,0x12,0x12
000b48  4843              LDR      r0,|L12.3160|
000b4a  eb002102          ADD      r1,r0,r2,LSL #8       ;280
000b4e  e00a              B        |L12.2918|
000b50  6ba0              LDR      r0,[r4,#0x38]         ;280  ; prg_rombank0
000b52  eb002002          ADD      r0,r0,r2,LSL #8       ;280
000b56  f5a04100          SUB      r1,r0,#0x8000         ;280
000b5a  e004              B        |L12.2918|
000b5c  6be0              LDR      r0,[r4,#0x3c]         ;280  ; prg_rombank1
000b5e  eb002002          ADD      r0,r0,r2,LSL #8       ;280
000b62  f5a04140          SUB      r1,r0,#0xc000         ;280
                  |L12.2918|
000b66  4b3f              LDR      r3,|L12.3172|
000b68  1a58              SUBS     r0,r3,r1              ;280
000b6a  2800              CMP      r0,#0                 ;280
000b6c  dd04              BLE      |L12.2936|
000b6e  f5b07f80          CMP      r0,#0x100             ;280
000b72  bfb8              IT       LT                    ;280
000b74  2200              MOVLT    r2,#0                 ;280
000b76  db05              BLT      |L12.2948|
                  |L12.2936|
000b78  f44f7280          MOV      r2,#0x100             ;280
000b7c  4839              LDR      r0,|L12.3172|
000b7e  f7fffffe          BL       __aeabi_memmove
000b82  e05c              B        |L12.3134|
                  |L12.2948|
000b84  5c88              LDRB     r0,[r1,r2]            ;280
000b86  5498              STRB     r0,[r3,r2]            ;280
000b88  1888              ADDS     r0,r1,r2              ;280
000b8a  eb030c02          ADD      r12,r3,r2             ;280
000b8e  7840              LDRB     r0,[r0,#1]            ;280
000b90  1c92              ADDS     r2,r2,#2              ;280
000b92  f88c0001          STRB     r0,[r12,#1]           ;280
000b96  f5b27f80          CMP      r2,#0x100             ;280
000b9a  dbf3              BLT      |L12.2948|
000b9c  e04f              B        |L12.3134|
                  |L12.2974|
000b9e  b3ea              CBZ      r2,|L12.3100|
000ba0  4835              LDR      r0,|L12.3192|
000ba2  7001              STRB     r1,[r0,#0]            ;280
000ba4  4835              LDR      r0,|L12.3196|
000ba6  6900              LDR      r0,[r0,#0x10]         ;280
000ba8  43c0              MVNS     r0,r0                 ;280
000baa  b283              UXTH     r3,r0                 ;280
000bac  4834              LDR      r0,|L12.3200|
000bae  8801              LDRH     r1,[r0,#0]            ;280  ; joys
000bb0  f5b16f40          CMP      r1,#0xc00             ;280
000bb4  bf94              ITE      LS                    ;280
000bb6  f04f0c00          MOVLS    r12,#0                ;280
000bba  f04f0c01          MOVHI    r12,#1                ;280
000bbe  ea43430c          ORR      r3,r3,r12,LSL #16     ;280
000bc2  f5b16f80          CMP      r1,#0x400             ;280
000bc6  bf34              ITE      CC                    ;280
000bc8  2101              MOVCC    r1,#1                 ;280
000bca  2100              MOVCS    r1,#0                 ;280
000bcc  ea434341          ORR      r3,r3,r1,LSL #17      ;280
000bd0  8841              LDRH     r1,[r0,#2]            ;280  ; joys
000bd2  f5b16f40          CMP      r1,#0xc00             ;280
000bd6  bf8c              ITE      HI                    ;280
000bd8  f04f0c01          MOVHI    r12,#1                ;280
000bdc  f04f0c00          MOVLS    r12,#0                ;280
000be0  ea43438c          ORR      r3,r3,r12,LSL #18     ;280
000be4  f5b16f80          CMP      r1,#0x400             ;280
000be8  bf34              ITE      CC                    ;280
000bea  2101              MOVCC    r1,#1                 ;280
000bec  2100              MOVCS    r1,#0                 ;280
000bee  ea4343c1          ORR      r3,r3,r1,LSL #19      ;280
000bf2  88c1              LDRH     r1,[r0,#6]            ;280  ; joys
000bf4  f5b16f40          CMP      r1,#0xc00             ;280
000bf8  bf8c              ITE      HI                    ;280
000bfa  f04f0c01          MOVHI    r12,#1                ;280
000bfe  f04f0c00          MOVLS    r12,#0                ;280
000c02  ea43530c          ORR      r3,r3,r12,LSL #20     ;280
000c06  f5b16f80          CMP      r1,#0x400             ;280
000c0a  bf34              ITE      CC                    ;280
000c0c  2101              MOVCC    r1,#1                 ;280
000c0e  2100              MOVCS    r1,#0                 ;280
000c10  ea435141          ORR      r1,r3,r1,LSL #21      ;280
000c14  8880              LDRH     r0,[r0,#4]            ;280  ; joys
000c16  f5b06f40          CMP      r0,#0xc00             ;280
000c1a  e000              B        |L12.3102|
                  |L12.3100|
000c1c  e00d              B        |L12.3130|
                  |L12.3102|
000c1e  bf8c              ITE      HI                    ;280
000c20  2301              MOVHI    r3,#1                 ;280
000c22  2300              MOVLS    r3,#0                 ;280
000c24  ea415183          ORR      r1,r1,r3,LSL #22      ;280
000c28  f5b06f80          CMP      r0,#0x400             ;280
000c2c  bf34              ITE      CC                    ;280
000c2e  2001              MOVCC    r0,#1                 ;280
000c30  2000              MOVCS    r0,#0                 ;280
000c32  ea4150c0          ORR      r0,r1,r0,LSL #23      ;280
000c36  6160              STR      r0,[r4,#0x14]         ;280  ; joypad_state
000c38  6160              STR      r0,[r4,#0x14]         ;280  ; joypad_state
                  |L12.3130|
000c3a  4812              LDR      r0,|L12.3204|
                  |L12.3132|
000c3c  7002              STRB     r2,[r0,#0]            ;280
                  |L12.3134|
000c3e  4628              MOV      r0,r5                 ;280
000c40  f7fffffe          BL       cpu_getmemory
000c44  2800              CMP      r0,#0                 ;280
000c46  f43fae0b          BEQ      |L12.2144|
000c4a  e5e7              B        |L12.2076|
                  |L12.3148|
000c4c  7160              STRB     r0,[r4,#5]            ;280
000c4e  e60c              B        |L12.2154|
                  |L12.3152|
                          DCD      cpu_abs
                  |L12.3156|
                          DCD      cpu_indy
                  |L12.3160|
                          DCD      ||.bss||
                  |L12.3164|
                          DCD      cpu_absy
                  |L12.3168|
                          DCD      PPU_Reg
                  |L12.3172|
                          DCD      Spr_Mem
                  |L12.3176|
                          DCD      PPU_Latch_Flag
                  |L12.3180|
                          DCD      PPU_BG_HScrlOrg
                  |L12.3184|
                          DCD      PPU_BG_VScrlOrg
                  |L12.3188|
                          DCD      PPU_Mem
                  |L12.3192|
                          DCD      ||.data||+0x9
                  |L12.3196|
                          DCD      0x40021000
                  |L12.3200|
                          DCD      joys
                  |L12.3204|
                          DCD      ||.data||+0xb
000c88  48fa              LDR      r0,|L12.4212|
000c8a  f7fffffe          BL       cpu_ora
000c8e  6c20              LDR      r0,[r4,#0x40]         ;280  ; cpu_clockticks
000c90  1d00              ADDS     r0,r0,#4              ;280
000c92  f7ffbbf5          B        |L12.1152|
000c96  48f7              LDR      r0,|L12.4212|
000c98  f7fffffe          BL       cpu_asl
000c9c  6c20              LDR      r0,[r4,#0x40]         ;280  ; cpu_clockticks
000c9e  1dc0              ADDS     r0,r0,#7              ;280
000ca0  f7ffbbee          B        |L12.1152|
000ca4  79a1              LDRB     r1,[r4,#6]            ;280  ; S
000ca6  89e0              LDRH     r0,[r4,#0xe]          ;280  ; PC
000ca8  1e89              SUBS     r1,r1,#2              ;280
000caa  b2c9              UXTB     r1,r1                 ;280
000cac  4af2              LDR      r2,|L12.4216|
000cae  71a1              STRB     r1,[r4,#6]            ;280
000cb0  4411              ADD      r1,r1,r2              ;280
000cb2  1c40              ADDS     r0,r0,#1              ;280
000cb4  f8a10101          STRH     r0,[r1,#0x101]        ;280
000cb8  1e40              SUBS     r0,r0,#1              ;280
000cba  81e0              STRH     r0,[r4,#0xe]          ;280
000cbc  f7fffffe          BL       cpu_abs
000cc0  81e0              STRH     r0,[r4,#0xe]          ;280
000cc2  6c20              LDR      r0,[r4,#0x40]         ;280  ; cpu_clockticks
000cc4  1d80              ADDS     r0,r0,#6              ;280
000cc6  f7ffbbdb          B        |L12.1152|
000cca  48ec              LDR      r0,|L12.4220|
000ccc  f7fffffe          BL       cpu_and
000cd0  6c20              LDR      r0,[r4,#0x40]         ;280  ; cpu_clockticks
000cd2  1d80              ADDS     r0,r0,#6              ;280
000cd4  f7ffbbd4          B        |L12.1152|
000cd8  89e0              LDRH     r0,[r4,#0xe]          ;280  ; PC
000cda  49e7              LDR      r1,|L12.4216|
000cdc  1c40              ADDS     r0,r0,#1              ;280
000cde  81e0              STRH     r0,[r4,#0xe]          ;280
000ce0  7a20              LDRB     r0,[r4,#8]            ;280  ; operand
000ce2  5c08              LDRB     r0,[r1,r0]            ;280
000ce4  78a1              LDRB     r1,[r4,#2]            ;280  ; A
000ce6  4208              TST      r0,r1                 ;280
000ce8  7961              LDRB     r1,[r4,#5]            ;280  ; P
000cea  bf14              ITE      NE                    ;280
000cec  f00101fd          ANDNE    r1,r1,#0xfd           ;280
000cf0  f0410102          ORREQ    r1,r1,#2              ;280
000cf4  f001013f          AND      r1,r1,#0x3f           ;280
000cf8  f00000c0          AND      r0,r0,#0xc0           ;280
000cfc  4308              ORRS     r0,r0,r1              ;280
000cfe  7160              STRB     r0,[r4,#5]            ;280
000d00  6c20              LDR      r0,[r4,#0x40]         ;280  ; cpu_clockticks
000d02  1cc0              ADDS     r0,r0,#3              ;280
000d04  f7ffbbbc          B        |L12.1152|
000d08  89e0              LDRH     r0,[r4,#0xe]          ;280  ; PC
000d0a  49db              LDR      r1,|L12.4216|
000d0c  1c40              ADDS     r0,r0,#1              ;280
000d0e  81e0              STRH     r0,[r4,#0xe]          ;280
000d10  7a20              LDRB     r0,[r4,#8]            ;280  ; operand
000d12  5c08              LDRB     r0,[r1,r0]            ;280
000d14  78a1              LDRB     r1,[r4,#2]            ;280  ; A
000d16  4008              ANDS     r0,r0,r1              ;280
000d18  70a0              STRB     r0,[r4,#2]            ;280
000d1a  7961              LDRB     r1,[r4,#5]            ;280  ; P
000d1c  bf14              ITE      NE                    ;280
000d1e  f00101fd          ANDNE    r1,r1,#0xfd           ;280
000d22  f0410102          ORREQ    r1,r1,#2              ;280
000d26  7161              STRB     r1,[r4,#5]            ;280
000d28  f0100f80          TST      r0,#0x80              ;280
000d2c  d004              BEQ      |L12.3384|
                  |L12.3374|
000d2e  b2c8              UXTB     r0,r1                 ;280
                  |L12.3376|
000d30  f0400080          ORR      r0,r0,#0x80           ;280
000d34  f7ffbbd4          B        |L12.1248|
                  |L12.3384|
000d38  f001007f          AND      r0,r1,#0x7f           ;280
000d3c  f7ffbbd0          B        |L12.1248|
000d40  89e0              LDRH     r0,[r4,#0xe]          ;280  ; PC
000d42  7962              LDRB     r2,[r4,#5]            ;280  ; P
000d44  1c40              ADDS     r0,r0,#1              ;280
000d46  81e0              STRH     r0,[r4,#0xe]          ;280
000d48  7a21              LDRB     r1,[r4,#8]            ;280  ; operand
000d4a  4bcb              LDR      r3,|L12.4216|
000d4c  f0020c01          AND      r12,r2,#1             ;280
000d50  f00202fe          AND      r2,r2,#0xfe           ;280
000d54  5c58              LDRB     r0,[r3,r1]            ;280
000d56  ea4212d0          ORR      r2,r2,r0,LSR #7       ;280
000d5a  0640              LSLS     r0,r0,#25             ;280
000d5c  7162              STRB     r2,[r4,#5]            ;280
000d5e  ea5c6010          ORRS     r0,r12,r0,LSR #24     ;280
000d62  5458              STRB     r0,[r3,r1]            ;280
000d64  bf14              ITE      NE                    ;280
000d66  f00201fd          ANDNE    r1,r2,#0xfd           ;280
000d6a  f0420102          ORREQ    r1,r2,#2              ;280
000d6e  7161              STRB     r1,[r4,#5]            ;280
000d70  f0100f80          TST      r0,#0x80              ;280
000d74  d002              BEQ      |L12.3452|
                  |L12.3446|
000d76  b2c8              UXTB     r0,r1                 ;280
000d78  f000b978          B.W      |L12.4204|
                  |L12.3452|
000d7c  b2c8              UXTB     r0,r1                 ;280
000d7e  f000b989          B.W      |L12.4244|
000d82  79a0              LDRB     r0,[r4,#6]            ;280  ; S
000d84  49bc              LDR      r1,|L12.4216|
000d86  1c40              ADDS     r0,r0,#1              ;280
000d88  b2c0              UXTB     r0,r0                 ;280
000d8a  71a0              STRB     r0,[r4,#6]            ;280
000d8c  4408              ADD      r0,r0,r1              ;280
000d8e  f8900100          LDRB     r0,[r0,#0x100]        ;280
000d92  f0400020          ORR      r0,r0,#0x20           ;280
000d96  7160              STRB     r0,[r4,#5]            ;280
000d98  6c20              LDR      r0,[r4,#0x40]         ;280  ; cpu_clockticks
000d9a  1d00              ADDS     r0,r0,#4              ;280
000d9c  f7ffbb70          B        |L12.1152|
000da0  48b7              LDR      r0,|L12.4224|
000da2  f7fffffe          BL       cpu_and
000da6  6c20              LDR      r0,[r4,#0x40]         ;280  ; cpu_clockticks
000da8  1cc0              ADDS     r0,r0,#3              ;280
000daa  f7ffbb69          B        |L12.1152|
000dae  7960              LDRB     r0,[r4,#5]            ;280  ; P
000db0  f0000201          AND      r2,r0,#1              ;280
000db4  f00001fe          AND      r1,r0,#0xfe           ;280
000db8  78a0              LDRB     r0,[r4,#2]            ;280  ; A
000dba  ea4111d0          ORR      r1,r1,r0,LSR #7       ;280
000dbe  0640              LSLS     r0,r0,#25             ;280
000dc0  7161              STRB     r1,[r4,#5]            ;280
000dc2  ea526010          ORRS     r0,r2,r0,LSR #24      ;280
000dc6  70a0              STRB     r0,[r4,#2]            ;280
000dc8  bf14              ITE      NE                    ;280
000dca  f00101fd          ANDNE    r1,r1,#0xfd           ;280
000dce  f0410102          ORREQ    r1,r1,#2              ;280
000dd2  7161              STRB     r1,[r4,#5]            ;280
000dd4  f0100f80          TST      r0,#0x80              ;280
000dd8  f47fadee          BNE      |L12.2488|
000ddc  f7ffbbcc          B        |L12.1400|
000de0  f7fffffe          BL       cpu_abs
000de4  f7fffffe          BL       cpu_getmemory
000de8  7961              LDRB     r1,[r4,#5]            ;280  ; P
000dea  f01000ff          ANDS     r0,r0,#0xff           ;280
000dee  bf0c              ITE      EQ                    ;280
000df0  f0410102          ORREQ    r1,r1,#2              ;280
000df4  f0210102          BICNE    r1,r1,#2              ;280
000df8  7161              STRB     r1,[r4,#5]            ;280
000dfa  f0100f80          TST      r0,#0x80              ;280
000dfe  b2c9              UXTB     r1,r1                 ;280
000e00  bf14              ITE      NE                    ;280
000e02  f0410180          ORRNE    r1,r1,#0x80           ;280
000e06  f0210180          BICEQ    r1,r1,#0x80           ;280
000e0a  7161              STRB     r1,[r4,#5]            ;280
000e0c  f0100f40          TST      r0,#0x40              ;280
000e10  d075              BEQ      |L12.3838|
                  |L12.3602|
000e12  b2c8              UXTB     r0,r1                 ;280
000e14  f0400040          ORR      r0,r0,#0x40           ;280
000e18  e718              B        |L12.3148|
000e1a  489a              LDR      r0,|L12.4228|
000e1c  f7fffffe          BL       cpu_and
000e20  6c20              LDR      r0,[r4,#0x40]         ;280  ; cpu_clockticks
000e22  1d00              ADDS     r0,r0,#4              ;280
000e24  f7ffbb2c          B        |L12.1152|
000e28  4896              LDR      r0,|L12.4228|
000e2a  f7fffffe          BL       cpu_rol
000e2e  6c20              LDR      r0,[r4,#0x40]         ;280  ; cpu_clockticks
000e30  1d80              ADDS     r0,r0,#6              ;280
000e32  f7ffbb25          B        |L12.1152|
000e36  7960              LDRB     r0,[r4,#5]            ;280  ; P
000e38  f0100f80          TST      r0,#0x80              ;280
000e3c  d00b              BEQ      |L12.3670|
                  |L12.3646|
000e3e  6c20              LDR      r0,[r4,#0x40]         ;280  ; cpu_clockticks
000e40  1c40              ADDS     r0,r0,#1              ;280
000e42  6420              STR      r0,[r4,#0x40]         ;280  ; cpu_clockticks
000e44  f7fffffe          BL       cpu_relative
000e48  89e1              LDRH     r1,[r4,#0xe]          ;280  ; PC
000e4a  4408              ADD      r0,r0,r1              ;280
000e4c  81e0              STRH     r0,[r4,#0xe]          ;280
000e4e  6c20              LDR      r0,[r4,#0x40]         ;280  ; cpu_clockticks
000e50  1c40              ADDS     r0,r0,#1              ;280
000e52  6420              STR      r0,[r4,#0x40]         ;280  ; cpu_clockticks
000e54  e51d              B        |L12.2194|
                  |L12.3670|
000e56  89e0              LDRH     r0,[r4,#0xe]          ;280  ; PC
000e58  1c40              ADDS     r0,r0,#1              ;280
000e5a  81e0              STRH     r0,[r4,#0xe]          ;280
000e5c  6c20              LDR      r0,[r4,#0x40]         ;280  ; cpu_clockticks
000e5e  e518              B        |L12.2194|
000e60  4889              LDR      r0,|L12.4232|
000e62  f7fffffe          BL       cpu_and
000e66  6c20              LDR      r0,[r4,#0x40]         ;280  ; cpu_clockticks
000e68  1d40              ADDS     r0,r0,#5              ;280
000e6a  f7ffbb09          B        |L12.1152|
000e6e  89e0              LDRH     r0,[r4,#0xe]          ;280  ; PC
000e70  4981              LDR      r1,|L12.4216|
000e72  1c40              ADDS     r0,r0,#1              ;280
000e74  81e0              STRH     r0,[r4,#0xe]          ;280
000e76  7a20              LDRB     r0,[r4,#8]            ;280  ; operand
000e78  5c08              LDRB     r0,[r1,r0]            ;280
000e7a  f7fffffe          BL       cpu_getmemory
000e7e  78a1              LDRB     r1,[r4,#2]            ;280  ; A
000e80  b2c0              UXTB     r0,r0                 ;280
000e82  4008              ANDS     r0,r0,r1              ;280
000e84  70a0              STRB     r0,[r4,#2]            ;280
000e86  7961              LDRB     r1,[r4,#5]            ;280  ; P
000e88  bf14              ITE      NE                    ;280
000e8a  f00101fd          ANDNE    r1,r1,#0xfd           ;280
000e8e  f0410102          ORREQ    r1,r1,#2              ;280
000e92  7161              STRB     r1,[r4,#5]            ;280
000e94  f0100f80          TST      r0,#0x80              ;280
000e98  f43faf4e          BEQ      |L12.3384|
000e9c  e747              B        |L12.3374|
000e9e  89e0              LDRH     r0,[r4,#0xe]          ;280  ; PC
000ea0  1c40              ADDS     r0,r0,#1              ;280
000ea2  81e0              STRH     r0,[r4,#0xe]          ;280
000ea4  7a20              LDRB     r0,[r4,#8]            ;280  ; operand
000ea6  78e1              LDRB     r1,[r4,#3]            ;280  ; X
000ea8  4408              ADD      r0,r0,r1              ;280
000eaa  4973              LDR      r1,|L12.4216|
000eac  b2c0              UXTB     r0,r0                 ;280
000eae  5c08              LDRB     r0,[r1,r0]            ;280
000eb0  78a1              LDRB     r1,[r4,#2]            ;280  ; A
000eb2  4208              TST      r0,r1                 ;280
000eb4  7961              LDRB     r1,[r4,#5]            ;280  ; P
000eb6  bf14              ITE      NE                    ;280
000eb8  f00101fd          ANDNE    r1,r1,#0xfd           ;280
000ebc  f0410102          ORREQ    r1,r1,#2              ;280
000ec0  f001013f          AND      r1,r1,#0x3f           ;280
000ec4  f00000c0          AND      r0,r0,#0xc0           ;280
000ec8  4308              ORRS     r0,r0,r1              ;280
000eca  7160              STRB     r0,[r4,#5]            ;280
000ecc  e4cd              B        |L12.2154|
000ece  89e0              LDRH     r0,[r4,#0xe]          ;280  ; PC
000ed0  1c40              ADDS     r0,r0,#1              ;280
000ed2  81e0              STRH     r0,[r4,#0xe]          ;280
000ed4  7a20              LDRB     r0,[r4,#8]            ;280  ; operand
000ed6  78e1              LDRB     r1,[r4,#3]            ;280  ; X
000ed8  4408              ADD      r0,r0,r1              ;280
000eda  4967              LDR      r1,|L12.4216|
000edc  b2c0              UXTB     r0,r0                 ;280
000ede  5c08              LDRB     r0,[r1,r0]            ;280
000ee0  78a1              LDRB     r1,[r4,#2]            ;280  ; A
000ee2  4008              ANDS     r0,r0,r1              ;280
000ee4  70a0              STRB     r0,[r4,#2]            ;280
000ee6  7961              LDRB     r1,[r4,#5]            ;280  ; P
000ee8  bf14              ITE      NE                    ;280
000eea  f00101fd          ANDNE    r1,r1,#0xfd           ;280
000eee  f0410102          ORREQ    r1,r1,#2              ;280
000ef2  7161              STRB     r1,[r4,#5]            ;280
000ef4  f0100f80          TST      r0,#0x80              ;280
000ef8  f041812d          BNE.W    |L12.8534|
000efc  e514              B        |L12.2344|
                  |L12.3838|
000efe  e05b              B        |L12.4024|
000f00  89e0              LDRH     r0,[r4,#0xe]          ;280  ; PC
000f02  7962              LDRB     r2,[r4,#5]            ;280  ; P
000f04  1c40              ADDS     r0,r0,#1              ;280
000f06  81e0              STRH     r0,[r4,#0xe]          ;280
000f08  7a20              LDRB     r0,[r4,#8]            ;280  ; operand
000f0a  78e1              LDRB     r1,[r4,#3]            ;280  ; X
000f0c  4b5a              LDR      r3,|L12.4216|
000f0e  4408              ADD      r0,r0,r1              ;280
000f10  b2c1              UXTB     r1,r0                 ;280
000f12  f0020c01          AND      r12,r2,#1             ;280
000f16  5c58              LDRB     r0,[r3,r1]            ;280
000f18  f00202fe          AND      r2,r2,#0xfe           ;280
000f1c  ea4212d0          ORR      r2,r2,r0,LSR #7       ;280
000f20  0640              LSLS     r0,r0,#25             ;280
000f22  7162              STRB     r2,[r4,#5]            ;280
000f24  ea5c6010          ORRS     r0,r12,r0,LSR #24     ;280
000f28  5458              STRB     r0,[r3,r1]            ;280
000f2a  bf14              ITE      NE                    ;280
000f2c  f00201fd          ANDNE    r1,r2,#0xfd           ;280
000f30  f0420102          ORREQ    r1,r2,#2              ;280
000f34  7161              STRB     r1,[r4,#5]            ;280
000f36  f0100f80          TST      r0,#0x80              ;280
000f3a  d001              BEQ      |L12.3904|
                  |L12.3900|
000f3c  b2c8              UXTB     r0,r1                 ;280
000f3e  e14d              B        |L12.4572|
                  |L12.3904|
000f40  b2c8              UXTB     r0,r1                 ;280
000f42  e151              B        |L12.4584|
000f44  7960              LDRB     r0,[r4,#5]            ;280  ; P
000f46  f0400001          ORR      r0,r0,#1              ;280
000f4a  7160              STRB     r0,[r4,#5]            ;280
000f4c  f7ffba9a          B        |L12.1156|
000f50  484e              LDR      r0,|L12.4236|
000f52  f7fffffe          BL       cpu_and
000f56  6c20              LDR      r0,[r4,#0x40]         ;280  ; cpu_clockticks
000f58  1d00              ADDS     r0,r0,#4              ;280
000f5a  f7ffba91          B        |L12.1152|
000f5e  78a0              LDRB     r0,[r4,#2]            ;280  ; A
000f60  1e40              SUBS     r0,r0,#1              ;280
000f62  f01000ff          ANDS     r0,r0,#0xff           ;280
000f66  70a0              STRB     r0,[r4,#2]            ;280
000f68  7961              LDRB     r1,[r4,#5]            ;280  ; P
000f6a  bf14              ITE      NE                    ;280
000f6c  f00101fd          ANDNE    r1,r1,#0xfd           ;280
000f70  f0410102          ORREQ    r1,r1,#2              ;280
000f74  7161              STRB     r1,[r4,#5]            ;280
000f76  f0100f80          TST      r0,#0x80              ;280
000f7a  f43faafd          BEQ      |L12.1400|
000f7e  f7ffbaf8          B        |L12.1394|
000f82  bf00              NOP                            ;280
000f84  f7fffffe          BL       cpu_absx
000f88  f7fffffe          BL       cpu_getmemory
000f8c  7961              LDRB     r1,[r4,#5]            ;280  ; P
000f8e  f01000ff          ANDS     r0,r0,#0xff           ;280
000f92  bf0c              ITE      EQ                    ;280
000f94  f0410102          ORREQ    r1,r1,#2              ;280
000f98  f0210102          BICNE    r1,r1,#2              ;280
000f9c  7161              STRB     r1,[r4,#5]            ;280
000f9e  f0100f80          TST      r0,#0x80              ;280
000fa2  b2c9              UXTB     r1,r1                 ;280
000fa4  bf14              ITE      NE                    ;280
000fa6  f0410180          ORRNE    r1,r1,#0x80           ;280
000faa  f0210180          BICEQ    r1,r1,#0x80           ;280
000fae  7161              STRB     r1,[r4,#5]            ;280
000fb0  f0100f40          TST      r0,#0x40              ;280
000fb4  f47faf2d          BNE      |L12.3602|
                  |L12.4024|
000fb8  f00100bf          AND      r0,r1,#0xbf           ;280
000fbc  e646              B        |L12.3148|
000fbe  482d              LDR      r0,|L12.4212|
000fc0  f7fffffe          BL       cpu_and
000fc4  6c20              LDR      r0,[r4,#0x40]         ;280  ; cpu_clockticks
000fc6  1d00              ADDS     r0,r0,#4              ;280
000fc8  f7ffba5a          B        |L12.1152|
000fcc  4829              LDR      r0,|L12.4212|
000fce  f7fffffe          BL       cpu_rol
000fd2  6c20              LDR      r0,[r4,#0x40]         ;280  ; cpu_clockticks
000fd4  1dc0              ADDS     r0,r0,#7              ;280
000fd6  f7ffba53          B        |L12.1152|
000fda  79a0              LDRB     r0,[r4,#6]            ;280  ; S
000fdc  4926              LDR      r1,|L12.4216|
000fde  1c40              ADDS     r0,r0,#1              ;280
000fe0  b2c0              UXTB     r0,r0                 ;280
000fe2  180a              ADDS     r2,r1,r0              ;280
000fe4  1c80              ADDS     r0,r0,#2              ;280
000fe6  f8921100          LDRB     r1,[r2,#0x100]        ;280
000fea  f0210130          BIC      r1,r1,#0x30           ;280
000fee  7161              STRB     r1,[r4,#5]            ;280
000ff0  f8b21101          LDRH     r1,[r2,#0x101]        ;280
000ff4  71a0              STRB     r0,[r4,#6]            ;280
000ff6  81e1              STRH     r1,[r4,#0xe]          ;280
000ff8  6c20              LDR      r0,[r4,#0x40]         ;280  ; cpu_clockticks
000ffa  1d80              ADDS     r0,r0,#6              ;280
000ffc  f7ffba40          B        |L12.1152|
001000  481e              LDR      r0,|L12.4220|
001002  f7fffffe          BL       cpu_eor
001006  6c20              LDR      r0,[r4,#0x40]         ;280  ; cpu_clockticks
001008  1d80              ADDS     r0,r0,#6              ;280
00100a  f7ffba39          B        |L12.1152|
00100e  89e0              LDRH     r0,[r4,#0xe]          ;280  ; PC
001010  4919              LDR      r1,|L12.4216|
001012  1c40              ADDS     r0,r0,#1              ;280
001014  81e0              STRH     r0,[r4,#0xe]          ;280
001016  7a20              LDRB     r0,[r4,#8]            ;280  ; operand
001018  5c08              LDRB     r0,[r1,r0]            ;280
00101a  78a1              LDRB     r1,[r4,#2]            ;280  ; A
00101c  4048              EORS     r0,r0,r1              ;280
00101e  70a0              STRB     r0,[r4,#2]            ;280
001020  7961              LDRB     r1,[r4,#5]            ;280  ; P
001022  bf14              ITE      NE                    ;280
001024  f00101fd          ANDNE    r1,r1,#0xfd           ;280
001028  f0410102          ORREQ    r1,r1,#2              ;280
00102c  7161              STRB     r1,[r4,#5]            ;280
00102e  f0100f80          TST      r0,#0x80              ;280
001032  f43fae81          BEQ      |L12.3384|
001036  e67a              B        |L12.3374|
001038  89e0              LDRH     r0,[r4,#0xe]          ;280  ; PC
00103a  4b0f              LDR      r3,|L12.4216|
00103c  1c40              ADDS     r0,r0,#1              ;280
00103e  81e0              STRH     r0,[r4,#0xe]          ;280
001040  7a21              LDRB     r1,[r4,#8]            ;280  ; operand
001042  7960              LDRB     r0,[r4,#5]            ;280  ; P
001044  5c5a              LDRB     r2,[r3,r1]            ;280
001046  f00000fe          AND      r0,r0,#0xfe           ;280
00104a  f0020c01          AND      r12,r2,#1             ;280
00104e  ea40000c          ORR      r0,r0,r12             ;280
001052  7160              STRB     r0,[r4,#5]            ;280
001054  0852              LSRS     r2,r2,#1              ;280
001056  545a              STRB     r2,[r3,r1]            ;280
001058  bf14              ITE      NE                    ;280
00105a  f00000fd          ANDNE    r0,r0,#0xfd           ;280
00105e  f0400002          ORREQ    r0,r0,#2              ;280
001062  7160              STRB     r0,[r4,#5]            ;280
001064  2000              MOVS     r0,#0                 ;280
001066  b198              CBZ      r0,|L12.4240|
                  |L12.4200|
001068  f8940005          LDRB.W   r0,[r4,#5]            ;280
                  |L12.4204|
00106c  f0400080          ORR      r0,r0,#0x80           ;280
001070  f7ffba56          B        |L12.1312|
                  |L12.4212|
                          DCD      cpu_absx
                  |L12.4216|
                          DCD      ||.bss||
                  |L12.4220|
                          DCD      cpu_indx
                  |L12.4224|
                          DCD      cpu_immediate
                  |L12.4228|
                          DCD      cpu_abs
                  |L12.4232|
                          DCD      cpu_indy
                  |L12.4236|
                          DCD      cpu_absy
                  |L12.4240|
001090  f8940005          LDRB.W   r0,[r4,#5]            ;280
                  |L12.4244|
001094  f000007f          AND      r0,r0,#0x7f           ;280
001098  f7ffba42          B        |L12.1312|
00109c  4afe              LDR      r2,|L12.5272|
00109e  79a1              LDRB     r1,[r4,#6]            ;280  ; S
0010a0  78a0              LDRB     r0,[r4,#2]            ;280  ; A
0010a2  440a              ADD      r2,r2,r1              ;280
0010a4  f8820100          STRB     r0,[r2,#0x100]        ;280
0010a8  1e48              SUBS     r0,r1,#1              ;280
0010aa  71a0              STRB     r0,[r4,#6]            ;280
0010ac  6c20              LDR      r0,[r4,#0x40]         ;280  ; cpu_clockticks
0010ae  1cc0              ADDS     r0,r0,#3              ;280
0010b0  f7ffb9e6          B        |L12.1152|
0010b4  48f9              LDR      r0,|L12.5276|
0010b6  f7fffffe          BL       cpu_eor
0010ba  6c20              LDR      r0,[r4,#0x40]         ;280  ; cpu_clockticks
0010bc  1cc0              ADDS     r0,r0,#3              ;280
0010be  f7ffb9df          B        |L12.1152|
0010c2  7960              LDRB     r0,[r4,#5]            ;280  ; P
0010c4  78a1              LDRB     r1,[r4,#2]            ;280  ; A
0010c6  f00000fe          AND      r0,r0,#0xfe           ;280
0010ca  f0010201          AND      r2,r1,#1              ;280
0010ce  4310              ORRS     r0,r0,r2              ;280
0010d0  7160              STRB     r0,[r4,#5]            ;280
0010d2  0849              LSRS     r1,r1,#1              ;280
0010d4  70a1              STRB     r1,[r4,#2]            ;280
0010d6  bf14              ITE      NE                    ;280
0010d8  f00000fd          ANDNE    r0,r0,#0xfd           ;280
0010dc  f0400002          ORREQ    r0,r0,#2              ;280
0010e0  7160              STRB     r0,[r4,#5]            ;280
0010e2  2000              MOVS     r0,#0                 ;280
0010e4  2800              CMP      r0,#0                 ;280
0010e6  d07d              BEQ      |L12.4580|
                  |L12.4328|
0010e8  f8940005          LDRB.W   r0,[r4,#5]            ;280
                  |L12.4332|
0010ec  f0400080          ORR      r0,r0,#0x80           ;280
0010f0  f000baf2          B.W      |L12.5848|
                  |L12.4340|
0010f4  f000007f          AND      r0,r0,#0x7f           ;280
0010f8  f000baee          B.W      |L12.5848|
0010fc  f7fffffe          BL       cpu_abs
001100  81e0              STRH     r0,[r4,#0xe]          ;280
001102  6c20              LDR      r0,[r4,#0x40]         ;280  ; cpu_clockticks
001104  1cc0              ADDS     r0,r0,#3              ;280
001106  f7ffb9bb          B        |L12.1152|
00110a  48e5              LDR      r0,|L12.5280|
00110c  f7fffffe          BL       cpu_eor
001110  6c20              LDR      r0,[r4,#0x40]         ;280  ; cpu_clockticks
001112  1d00              ADDS     r0,r0,#4              ;280
001114  f7ffb9b4          B        |L12.1152|
001118  48e1              LDR      r0,|L12.5280|
00111a  f7fffffe          BL       cpu_lsr
00111e  6c20              LDR      r0,[r4,#0x40]         ;280  ; cpu_clockticks
001120  1d80              ADDS     r0,r0,#6              ;280
001122  f7ffb9ad          B        |L12.1152|
001126  7960              LDRB     r0,[r4,#5]            ;280  ; P
001128  f0100f40          TST      r0,#0x40              ;280
00112c  f47fae93          BNE      |L12.3670|
001130  e685              B        |L12.3646|
001132  48dc              LDR      r0,|L12.5284|
001134  f7fffffe          BL       cpu_eor
001138  6c20              LDR      r0,[r4,#0x40]         ;280  ; cpu_clockticks
00113a  1d40              ADDS     r0,r0,#5              ;280
00113c  f7ffb9a0          B        |L12.1152|
001140  89e0              LDRH     r0,[r4,#0xe]          ;280  ; PC
001142  49d5              LDR      r1,|L12.5272|
001144  1c40              ADDS     r0,r0,#1              ;280
001146  81e0              STRH     r0,[r4,#0xe]          ;280
001148  7a20              LDRB     r0,[r4,#8]            ;280  ; operand
00114a  5c08              LDRB     r0,[r1,r0]            ;280
00114c  f7fffffe          BL       cpu_getmemory
001150  78a1              LDRB     r1,[r4,#2]            ;280  ; A
001152  4048              EORS     r0,r0,r1              ;280
001154  f01000ff          ANDS     r0,r0,#0xff           ;280
001158  70a0              STRB     r0,[r4,#2]            ;280
00115a  7961              LDRB     r1,[r4,#5]            ;280  ; P
00115c  bf14              ITE      NE                    ;280
00115e  f00101fd          ANDNE    r1,r1,#0xfd           ;280
001162  f0410102          ORREQ    r1,r1,#2              ;280
001166  7161              STRB     r1,[r4,#5]            ;280
001168  f0100f80          TST      r0,#0x80              ;280
00116c  f43fade4          BEQ      |L12.3384|
001170  e5dd              B        |L12.3374|
001172  89e0              LDRH     r0,[r4,#0xe]          ;280  ; PC
001174  1c40              ADDS     r0,r0,#1              ;280
001176  81e0              STRH     r0,[r4,#0xe]          ;280
001178  7a20              LDRB     r0,[r4,#8]            ;280  ; operand
00117a  78e1              LDRB     r1,[r4,#3]            ;280  ; X
00117c  4408              ADD      r0,r0,r1              ;280
00117e  49c6              LDR      r1,|L12.5272|
001180  b2c0              UXTB     r0,r0                 ;280
001182  5c08              LDRB     r0,[r1,r0]            ;280
001184  78a1              LDRB     r1,[r4,#2]            ;280  ; A
001186  4048              EORS     r0,r0,r1              ;280
001188  70a0              STRB     r0,[r4,#2]            ;280
00118a  7961              LDRB     r1,[r4,#5]            ;280  ; P
00118c  bf14              ITE      NE                    ;280
00118e  f00101fd          ANDNE    r1,r1,#0xfd           ;280
001192  f0410102          ORREQ    r1,r1,#2              ;280
001196  7161              STRB     r1,[r4,#5]            ;280
001198  f0100f80          TST      r0,#0x80              ;280
00119c  f04087db          BNE.W    |L12.8534|
0011a0  f7ffbbc2          B        |L12.2344|
0011a4  89e0              LDRH     r0,[r4,#0xe]          ;280  ; PC
0011a6  4bbc              LDR      r3,|L12.5272|
0011a8  1c40              ADDS     r0,r0,#1              ;280
0011aa  81e0              STRH     r0,[r4,#0xe]          ;280
0011ac  7a20              LDRB     r0,[r4,#8]            ;280  ; operand
0011ae  78e1              LDRB     r1,[r4,#3]            ;280  ; X
0011b0  7962              LDRB     r2,[r4,#5]            ;280  ; P
0011b2  4408              ADD      r0,r0,r1              ;280
0011b4  b2c0              UXTB     r0,r0                 ;280
0011b6  f00202fe          AND      r2,r2,#0xfe           ;280
0011ba  5c19              LDRB     r1,[r3,r0]            ;280
0011bc  f0010c01          AND      r12,r1,#1             ;280
0011c0  ea42020c          ORR      r2,r2,r12             ;280
0011c4  7162              STRB     r2,[r4,#5]            ;280
0011c6  0849              LSRS     r1,r1,#1              ;280
0011c8  5419              STRB     r1,[r3,r0]            ;280
0011ca  bf14              ITE      NE                    ;280
0011cc  f00200fd          ANDNE    r0,r2,#0xfd           ;280
0011d0  f0420002          ORREQ    r0,r2,#2              ;280
0011d4  7160              STRB     r0,[r4,#5]            ;280
0011d6  2000              MOVS     r0,#0                 ;280
0011d8  b128              CBZ      r0,|L12.4582|
                  |L12.4570|
0011da  7960              LDRB     r0,[r4,#5]            ;280  ; P
                  |L12.4572|
0011dc  f0400080          ORR      r0,r0,#0x80           ;280
0011e0  f7ffbbc7          B        |L12.2418|
                  |L12.4580|
0011e4  e0f6              B        |L12.5076|
                  |L12.4582|
0011e6  7960              LDRB     r0,[r4,#5]            ;280  ; P
                  |L12.4584|
0011e8  f000007f          AND      r0,r0,#0x7f           ;280
0011ec  f7ffbbc1          B        |L12.2418|
0011f0  7960              LDRB     r0,[r4,#5]            ;280  ; P
0011f2  f0200004          BIC      r0,r0,#4              ;280
0011f6  7160              STRB     r0,[r4,#5]            ;280
0011f8  6c20              LDR      r0,[r4,#0x40]         ;280  ; cpu_clockticks
0011fa  1c80              ADDS     r0,r0,#2              ;280
0011fc  f7ffb940          B        |L12.1152|
001200  48a9              LDR      r0,|L12.5288|
001202  f7fffffe          BL       cpu_eor
001206  6c20              LDR      r0,[r4,#0x40]         ;280  ; cpu_clockticks
001208  1d00              ADDS     r0,r0,#4              ;280
00120a  f7ffb939          B        |L12.1152|
00120e  4aa2              LDR      r2,|L12.5272|
001210  79a1              LDRB     r1,[r4,#6]            ;280  ; S
001212  7920              LDRB     r0,[r4,#4]            ;280  ; Y
001214  440a              ADD      r2,r2,r1              ;280
001216  f8820100          STRB     r0,[r2,#0x100]        ;280
00121a  1e48              SUBS     r0,r1,#1              ;280
00121c  71a0              STRB     r0,[r4,#6]            ;280
00121e  6c20              LDR      r0,[r4,#0x40]         ;280  ; cpu_clockticks
001220  1cc0              ADDS     r0,r0,#3              ;280
001222  f7ffb92d          B        |L12.1152|
001226  48a1              LDR      r0,|L12.5292|
001228  f7fffffe          BL       cpu_eor
00122c  6c20              LDR      r0,[r4,#0x40]         ;280  ; cpu_clockticks
00122e  1d00              ADDS     r0,r0,#4              ;280
001230  f7ffb926          B        |L12.1152|
001234  489d              LDR      r0,|L12.5292|
001236  f7fffffe          BL       cpu_lsr
00123a  6c20              LDR      r0,[r4,#0x40]         ;280  ; cpu_clockticks
00123c  1dc0              ADDS     r0,r0,#7              ;280
00123e  f7ffb91f          B        |L12.1152|
001242  4895              LDR      r0,|L12.5272|
001244  79a1              LDRB     r1,[r4,#6]            ;280  ; S
001246  4408              ADD      r0,r0,r1              ;280
001248  1c89              ADDS     r1,r1,#2              ;280
00124a  f8b00101          LDRH     r0,[r0,#0x101]        ;280
00124e  71a1              STRB     r1,[r4,#6]            ;280
001250  1c40              ADDS     r0,r0,#1              ;280
001252  81e0              STRH     r0,[r4,#0xe]          ;280
001254  6c20              LDR      r0,[r4,#0x40]         ;280  ; cpu_clockticks
001256  1d80              ADDS     r0,r0,#6              ;280
001258  f7ffb912          B        |L12.1152|
00125c  4894              LDR      r0,|L12.5296|
00125e  f7fffffe          BL       cpu_adc
001262  6c20              LDR      r0,[r4,#0x40]         ;280  ; cpu_clockticks
001264  1d80              ADDS     r0,r0,#6              ;280
001266  f7ffb90b          B        |L12.1152|
00126a  89e0              LDRH     r0,[r4,#0xe]          ;280  ; PC
00126c  4a8a              LDR      r2,|L12.5272|
00126e  1c40              ADDS     r0,r0,#1              ;280
001270  81e0              STRH     r0,[r4,#0xe]          ;280
001272  7a20              LDRB     r0,[r4,#8]            ;280  ; operand
001274  2100              MOVS     r1,#0                 ;280
001276  5411              STRB     r1,[r2,r0]            ;280
001278  6c20              LDR      r0,[r4,#0x40]         ;280  ; cpu_clockticks
00127a  1cc0              ADDS     r0,r0,#3              ;280
00127c  f7ffb900          B        |L12.1152|
001280  89e0              LDRH     r0,[r4,#0xe]          ;280  ; PC
001282  4985              LDR      r1,|L12.5272|
001284  1c40              ADDS     r0,r0,#1              ;280
001286  81e0              STRH     r0,[r4,#0xe]          ;280
001288  7a20              LDRB     r0,[r4,#8]            ;280  ; operand
00128a  78a3              LDRB     r3,[r4,#2]            ;280  ; A
00128c  5c08              LDRB     r0,[r1,r0]            ;280
00128e  7961              LDRB     r1,[r4,#5]            ;280  ; P
001290  4418              ADD      r0,r0,r3              ;280
001292  f0010201          AND      r2,r1,#1              ;280
001296  4410              ADD      r0,r0,r2              ;280
001298  f1000280          ADD      r2,r0,#0x80           ;280
00129c  f5b27f80          CMP      r2,#0x100             ;280
0012a0  bf2c              ITE      CS                    ;280
0012a2  f0410140          ORRCS    r1,r1,#0x40           ;280
0012a6  f00101bf          ANDCC    r1,r1,#0xbf           ;280
0012aa  7161              STRB     r1,[r4,#5]            ;280
0012ac  28ff              CMP      r0,#0xff              ;280
0012ae  b2c9              UXTB     r1,r1                 ;280
0012b0  bfcc              ITE      GT                    ;280
0012b2  f0410101          ORRGT    r1,r1,#1              ;280
0012b6  f00101fe          ANDLE    r1,r1,#0xfe           ;280
0012ba  7161              STRB     r1,[r4,#5]            ;280
0012bc  b2c0              UXTB     r0,r0                 ;280
0012be  b2c9              UXTB     r1,r1                 ;280
0012c0  70a0              STRB     r0,[r4,#2]            ;280
0012c2  f0110f08          TST      r1,#8                 ;280
0012c6  d013              BEQ      |L12.4848|
0012c8  f00101fe          AND      r1,r1,#0xfe           ;280
0012cc  f000020f          AND      r2,r0,#0xf            ;280
0012d0  7161              STRB     r1,[r4,#5]            ;280
0012d2  2a09              CMP      r2,#9                 ;280
0012d4  bf84              ITT      HI                    ;280
0012d6  1d80              ADDHI    r0,r0,#6              ;280
0012d8  70a0              STRBHI   r0,[r4,#2]            ;280
0012da  b2c0              UXTB     r0,r0                 ;280
0012dc  f00002f0          AND      r2,r0,#0xf0           ;280
0012e0  2a90              CMP      r2,#0x90              ;280
0012e2  d908              BLS      |L12.4854|
0012e4  3060              ADDS     r0,r0,#0x60           ;280
0012e6  70a0              STRB     r0,[r4,#2]            ;280
0012e8  f0410001          ORR      r0,r1,#1              ;280
0012ec  7160              STRB     r0,[r4,#5]            ;280
0012ee  e002              B        |L12.4854|
                  |L12.4848|
0012f0  6c20              LDR      r0,[r4,#0x40]         ;280  ; cpu_clockticks
0012f2  1c40              ADDS     r0,r0,#1              ;280
0012f4  6420              STR      r0,[r4,#0x40]         ;280  ; cpu_clockticks
                  |L12.4854|
0012f6  78a0              LDRB     r0,[r4,#2]            ;280  ; A
0012f8  7961              LDRB     r1,[r4,#5]            ;280  ; P
0012fa  2800              CMP      r0,#0                 ;280
0012fc  bf14              ITE      NE                    ;280
0012fe  f00101fd          ANDNE    r1,r1,#0xfd           ;280
001302  f0410102          ORREQ    r1,r1,#2              ;280
001306  7161              STRB     r1,[r4,#5]            ;280
001308  f0100f80          TST      r0,#0x80              ;280
00130c  f040868e          BNE.W    |L12.8236|
001310  e512              B        |L12.3384|
001312  89e0              LDRH     r0,[r4,#0xe]          ;280  ; PC
001314  7963              LDRB     r3,[r4,#5]            ;280  ; P
001316  f1000001          ADD      r0,r0,#1              ;280
00131a  81e0              STRH     r0,[r4,#0xe]          ;280
00131c  7a21              LDRB     r1,[r4,#8]            ;280  ; operand
00131e  4a5e              LDR      r2,|L12.5272|
001320  f0130f01          TST      r3,#1                 ;280
001324  f00303fe          AND      r3,r3,#0xfe           ;280
001328  5c50              LDRB     r0,[r2,r1]            ;280
00132a  f0000501          AND      r5,r0,#1              ;280
00132e  ea430305          ORR      r3,r3,r5              ;280
001332  7163              STRB     r3,[r4,#5]            ;280
001334  ea4f0050          LSR      r0,r0,#1              ;280
001338  bf18              IT       NE                    ;280
00133a  f0400080          ORRNE    r0,r0,#0x80           ;280
00133e  5450              STRB     r0,[r2,r1]            ;280
001340  2800              CMP      r0,#0                 ;280
001342  bf14              ITE      NE                    ;280
001344  f00301fd          ANDNE    r1,r3,#0xfd           ;280
001348  f0430102          ORREQ    r1,r3,#2              ;280
00134c  7161              STRB     r1,[r4,#5]            ;280
00134e  f0100f80          TST      r0,#0x80              ;280
001352  f43fad13          BEQ      |L12.3452|
001356  e50e              B        |L12.3446|
001358  79a0              LDRB     r0,[r4,#6]            ;280  ; S
00135a  494f              LDR      r1,|L12.5272|
00135c  1c40              ADDS     r0,r0,#1              ;280
00135e  b2c0              UXTB     r0,r0                 ;280
001360  71a0              STRB     r0,[r4,#6]            ;280
001362  4408              ADD      r0,r0,r1              ;280
001364  f8900100          LDRB     r0,[r0,#0x100]        ;280
001368  70a0              STRB     r0,[r4,#2]            ;280
00136a  7961              LDRB     r1,[r4,#5]            ;280  ; P
00136c  2800              CMP      r0,#0                 ;280
00136e  bf0c              ITE      EQ                    ;280
001370  f0410102          ORREQ    r1,r1,#2              ;280
001374  f0210102          BICNE    r1,r1,#2              ;280
001378  7161              STRB     r1,[r4,#5]            ;280
00137a  f0100f80          TST      r0,#0x80              ;280
00137e  f47faace          BNE      |L12.2334|
                  |L12.4994|
001382  b2c8              UXTB     r0,r1                 ;280
                  |L12.4996|
001384  f0200080          BIC      r0,r0,#0x80           ;280
001388  e460              B        |L12.3148|
00138a  4844              LDR      r0,|L12.5276|
00138c  f7fffffe          BL       cpu_adc
001390  6c20              LDR      r0,[r4,#0x40]         ;280  ; cpu_clockticks
001392  1cc0              ADDS     r0,r0,#3              ;280
001394  f7ffb874          B        |L12.1152|
001398  7960              LDRB     r0,[r4,#5]            ;280  ; P
00139a  78a1              LDRB     r1,[r4,#2]            ;280  ; A
00139c  f0100f01          TST      r0,#1                 ;280
0013a0  f0010301          AND      r3,r1,#1              ;280
0013a4  f00000fe          AND      r0,r0,#0xfe           ;280
0013a8  ea400003          ORR      r0,r0,r3              ;280
0013ac  7160              STRB     r0,[r4,#5]            ;280
0013ae  ea4f0151          LSR      r1,r1,#1              ;280
0013b2  70a1              STRB     r1,[r4,#2]            ;280
0013b4  bf1c              ITT      NE                    ;280
0013b6  f0410180          ORRNE    r1,r1,#0x80           ;280
0013ba  70a1              STRBNE   r1,[r4,#2]            ;280
0013bc  f01101ff          ANDS     r1,r1,#0xff           ;280
0013c0  bf14              ITE      NE                    ;280
0013c2  f00000fd          ANDNE    r0,r0,#0xfd           ;280
0013c6  f0400002          ORREQ    r0,r0,#2              ;280
0013ca  7160              STRB     r0,[r4,#5]            ;280
0013cc  f0110f80          TST      r1,#0x80              ;280
0013d0  f47fae8a          BNE      |L12.4328|
                  |L12.5076|
0013d4  7960              LDRB     r0,[r4,#5]            ;280  ; P
0013d6  e68d              B        |L12.4340|
0013d8  f7fffffe          BL       cpu_indirect
0013dc  81e0              STRH     r0,[r4,#0xe]          ;280
0013de  6c20              LDR      r0,[r4,#0x40]         ;280  ; cpu_clockticks
0013e0  1d40              ADDS     r0,r0,#5              ;280
0013e2  f7ffb84d          B        |L12.1152|
0013e6  482e              LDR      r0,|L12.5280|
0013e8  f7fffffe          BL       cpu_adc
0013ec  6c20              LDR      r0,[r4,#0x40]         ;280  ; cpu_clockticks
0013ee  1d00              ADDS     r0,r0,#4              ;280
0013f0  f7ffb846          B        |L12.1152|
0013f4  482a              LDR      r0,|L12.5280|
0013f6  f7fffffe          BL       cpu_ror
0013fa  6c20              LDR      r0,[r4,#0x40]         ;280  ; cpu_clockticks
0013fc  1d80              ADDS     r0,r0,#6              ;280
0013fe  f7ffb83f          B        |L12.1152|
001402  7960              LDRB     r0,[r4,#5]            ;280  ; P
001404  f0100f40          TST      r0,#0x40              ;280
001408  f43fad25          BEQ      |L12.3670|
00140c  6c20              LDR      r0,[r4,#0x40]         ;280  ; cpu_clockticks
00140e  1c40              ADDS     r0,r0,#1              ;280
001410  6420              STR      r0,[r4,#0x40]         ;280  ; cpu_clockticks
001412  f7fffffe          BL       cpu_implied
001416  89e1              LDRH     r1,[r4,#0xe]          ;280  ; PC
001418  4408              ADD      r0,r0,r1              ;280
00141a  81e0              STRH     r0,[r4,#0xe]          ;280
00141c  6c20              LDR      r0,[r4,#0x40]         ;280  ; cpu_clockticks
00141e  1c40              ADDS     r0,r0,#1              ;280
001420  6420              STR      r0,[r4,#0x40]         ;280  ; cpu_clockticks
001422  f7ffba36          B        |L12.2194|
001426  481f              LDR      r0,|L12.5284|
001428  f7fffffe          BL       cpu_adc
00142c  6c20              LDR      r0,[r4,#0x40]         ;280  ; cpu_clockticks
00142e  1d40              ADDS     r0,r0,#5              ;280
001430  f7ffb826          B        |L12.1152|
001434  89e0              LDRH     r0,[r4,#0xe]          ;280  ; PC
001436  4918              LDR      r1,|L12.5272|
001438  1c40              ADDS     r0,r0,#1              ;280
00143a  81e0              STRH     r0,[r4,#0xe]          ;280
00143c  7a20              LDRB     r0,[r4,#8]            ;280  ; operand
00143e  5c08              LDRB     r0,[r1,r0]            ;280
001440  f7fffffe          BL       cpu_getmemory
001444  b2c2              UXTB     r2,r0                 ;280
001446  7961              LDRB     r1,[r4,#5]            ;280  ; P
001448  78a3              LDRB     r3,[r4,#2]            ;280  ; A
00144a  f0010001          AND      r0,r1,#1              ;280
00144e  441a              ADD      r2,r2,r3              ;280
001450  4410              ADD      r0,r0,r2              ;280
001452  f1000280          ADD      r2,r0,#0x80           ;280
001456  f5b27f80          CMP      r2,#0x100             ;280
00145a  bf2c              ITE      CS                    ;280
00145c  f0410140          ORRCS    r1,r1,#0x40           ;280
001460  f00101bf          ANDCC    r1,r1,#0xbf           ;280
001464  7161              STRB     r1,[r4,#5]            ;280
001466  28ff              CMP      r0,#0xff              ;280
001468  b2c9              UXTB     r1,r1                 ;280
00146a  bfcc              ITE      GT                    ;280
00146c  f0410101          ORRGT    r1,r1,#1              ;280
001470  f00101fe          ANDLE    r1,r1,#0xfe           ;280
001474  7161              STRB     r1,[r4,#5]            ;280
001476  b2c0              UXTB     r0,r0                 ;280
001478  b2c9              UXTB     r1,r1                 ;280
00147a  70a0              STRB     r0,[r4,#2]            ;280
00147c  f0110f08          TST      r1,#8                 ;280
001480  d022              BEQ      |L12.5320|
001482  f00101fe          AND      r1,r1,#0xfe           ;280
001486  f000020f          AND      r2,r0,#0xf            ;280
00148a  7161              STRB     r1,[r4,#5]            ;280
00148c  2a09              CMP      r2,#9                 ;280
00148e  bf84              ITT      HI                    ;280
001490  1d80              ADDHI    r0,r0,#6              ;280
001492  70a0              STRBHI   r0,[r4,#2]            ;280
001494  b2c0              UXTB     r0,r0                 ;280
001496  e00d              B        |L12.5300|
                  |L12.5272|
                          DCD      ||.bss||
                  |L12.5276|
                          DCD      cpu_immediate
                  |L12.5280|
                          DCD      cpu_abs
                  |L12.5284|
                          DCD      cpu_indy
                  |L12.5288|
                          DCD      cpu_absy
                  |L12.5292|
                          DCD      cpu_absx
                  |L12.5296|
                          DCD      cpu_indx
                  |L12.5300|
0014b4  f00002f0          AND      r2,r0,#0xf0           ;280
0014b8  2a90              CMP      r2,#0x90              ;280
0014ba  d908              BLS      |L12.5326|
0014bc  3060              ADDS     r0,r0,#0x60           ;280
0014be  70a0              STRB     r0,[r4,#2]            ;280
0014c0  f0410001          ORR      r0,r1,#1              ;280
0014c4  7160              STRB     r0,[r4,#5]            ;280
0014c6  e002              B        |L12.5326|
                  |L12.5320|
0014c8  6c20              LDR      r0,[r4,#0x40]         ;280  ; cpu_clockticks
0014ca  1c40              ADDS     r0,r0,#1              ;280
0014cc  6420              STR      r0,[r4,#0x40]         ;280  ; cpu_clockticks
                  |L12.5326|
0014ce  78a0              LDRB     r0,[r4,#2]            ;280  ; A
0014d0  7961              LDRB     r1,[r4,#5]            ;280  ; P
0014d2  2800              CMP      r0,#0                 ;280
0014d4  bf14              ITE      NE                    ;280
0014d6  f00101fd          ANDNE    r1,r1,#0xfd           ;280
0014da  f0410102          ORREQ    r1,r1,#2              ;280
0014de  7161              STRB     r1,[r4,#5]            ;280
0014e0  f0100f80          TST      r0,#0x80              ;280
0014e4  f04085a2          BNE.W    |L12.8236|
0014e8  e426              B        |L12.3384|
0014ea  89e0              LDRH     r0,[r4,#0xe]          ;280  ; PC
0014ec  1c40              ADDS     r0,r0,#1              ;280
0014ee  81e0              STRH     r0,[r4,#0xe]          ;280
0014f0  7a20              LDRB     r0,[r4,#8]            ;280  ; operand
0014f2  78e1              LDRB     r1,[r4,#3]            ;280  ; X
0014f4  4408              ADD      r0,r0,r1              ;280
0014f6  b2c0              UXTB     r0,r0                 ;280
0014f8  2100              MOVS     r1,#0                 ;280
0014fa  4afe              LDR      r2,|L12.6388|
0014fc  5411              STRB     r1,[r2,r0]            ;280
0014fe  f7ffb9b4          B        |L12.2154|
001502  89e0              LDRH     r0,[r4,#0xe]          ;280  ; PC
001504  1c40              ADDS     r0,r0,#1              ;280
001506  81e0              STRH     r0,[r4,#0xe]          ;280
001508  7a20              LDRB     r0,[r4,#8]            ;280  ; operand
00150a  78e1              LDRB     r1,[r4,#3]            ;280  ; X
00150c  78a3              LDRB     r3,[r4,#2]            ;280  ; A
00150e  4408              ADD      r0,r0,r1              ;280
001510  49f8              LDR      r1,|L12.6388|
001512  b2c0              UXTB     r0,r0                 ;280
001514  5c09              LDRB     r1,[r1,r0]            ;280
001516  7960              LDRB     r0,[r4,#5]            ;280  ; P
001518  4419              ADD      r1,r1,r3              ;280
00151a  f0000201          AND      r2,r0,#1              ;280
00151e  4411              ADD      r1,r1,r2              ;280
001520  f1010280          ADD      r2,r1,#0x80           ;280
001524  f5b27f80          CMP      r2,#0x100             ;280
001528  bf2c              ITE      CS                    ;280
00152a  f0400040          ORRCS    r0,r0,#0x40           ;280
00152e  f00000bf          ANDCC    r0,r0,#0xbf           ;280
001532  7160              STRB     r0,[r4,#5]            ;280
001534  29ff              CMP      r1,#0xff              ;280
001536  b2c0              UXTB     r0,r0                 ;280
001538  bfcc              ITE      GT                    ;280
00153a  f0400001          ORRGT    r0,r0,#1              ;280
00153e  f00000fe          ANDLE    r0,r0,#0xfe           ;280
001542  7160              STRB     r0,[r4,#5]            ;280
001544  b2c8              UXTB     r0,r1                 ;280
001546  70a0              STRB     r0,[r4,#2]            ;280
001548  7961              LDRB     r1,[r4,#5]            ;280  ; P
00154a  f0110f08          TST      r1,#8                 ;280
00154e  d013              BEQ      |L12.5496|
001550  f00101fe          AND      r1,r1,#0xfe           ;280
001554  f000020f          AND      r2,r0,#0xf            ;280
001558  7161              STRB     r1,[r4,#5]            ;280
00155a  2a09              CMP      r2,#9                 ;280
00155c  bf84              ITT      HI                    ;280
00155e  1d80              ADDHI    r0,r0,#6              ;280
001560  70a0              STRBHI   r0,[r4,#2]            ;280
001562  b2c0              UXTB     r0,r0                 ;280
001564  f00002f0          AND      r2,r0,#0xf0           ;280
001568  2a90              CMP      r2,#0x90              ;280
00156a  d908              BLS      |L12.5502|
00156c  3060              ADDS     r0,r0,#0x60           ;280
00156e  70a0              STRB     r0,[r4,#2]            ;280
001570  f0410001          ORR      r0,r1,#1              ;280
001574  7160              STRB     r0,[r4,#5]            ;280
001576  e002              B        |L12.5502|
                  |L12.5496|
001578  6c20              LDR      r0,[r4,#0x40]         ;280  ; cpu_clockticks
00157a  1c40              ADDS     r0,r0,#1              ;280
00157c  6420              STR      r0,[r4,#0x40]         ;280  ; cpu_clockticks
                  |L12.5502|
00157e  78a0              LDRB     r0,[r4,#2]            ;280  ; A
001580  7961              LDRB     r1,[r4,#5]            ;280  ; P
001582  2800              CMP      r0,#0                 ;280
001584  bf14              ITE      NE                    ;280
001586  f00101fd          ANDNE    r1,r1,#0xfd           ;280
00158a  f0410102          ORREQ    r1,r1,#2              ;280
00158e  7161              STRB     r1,[r4,#5]            ;280
001590  f0100f80          TST      r0,#0x80              ;280
001594  f43fa9c8          BEQ      |L12.2344|
001598  f7ffb9c1          B        |L12.2334|
00159c  89e0              LDRH     r0,[r4,#0xe]          ;280  ; PC
00159e  7962              LDRB     r2,[r4,#5]            ;280  ; P
0015a0  f1000001          ADD      r0,r0,#1              ;280
0015a4  81e0              STRH     r0,[r4,#0xe]          ;280
0015a6  7a20              LDRB     r0,[r4,#8]            ;280  ; operand
0015a8  78e1              LDRB     r1,[r4,#3]            ;280  ; X
0015aa  4bd2              LDR      r3,|L12.6388|
0015ac  4408              ADD      r0,r0,r1              ;280
0015ae  b2c0              UXTB     r0,r0                 ;280
0015b0  f0120f01          TST      r2,#1                 ;280
0015b4  5c19              LDRB     r1,[r3,r0]            ;280
0015b6  f00202fe          AND      r2,r2,#0xfe           ;280
0015ba  f0010501          AND      r5,r1,#1              ;280
0015be  ea420205          ORR      r2,r2,r5              ;280
0015c2  7162              STRB     r2,[r4,#5]            ;280
0015c4  ea4f0151          LSR      r1,r1,#1              ;280
0015c8  bf18              IT       NE                    ;280
0015ca  f0410180          ORRNE    r1,r1,#0x80           ;280
0015ce  5419              STRB     r1,[r3,r0]            ;280
0015d0  2900              CMP      r1,#0                 ;280
0015d2  bf14              ITE      NE                    ;280
0015d4  f00200fd          ANDNE    r0,r2,#0xfd           ;280
0015d8  f0420002          ORREQ    r0,r2,#2              ;280
0015dc  7160              STRB     r0,[r4,#5]            ;280
0015de  f0110f80          TST      r1,#0x80              ;280
0015e2  f43fae00          BEQ      |L12.4582|
0015e6  e5f8              B        |L12.4570|
0015e8  7960              LDRB     r0,[r4,#5]            ;280  ; P
0015ea  f0400004          ORR      r0,r0,#4              ;280
0015ee  7160              STRB     r0,[r4,#5]            ;280
0015f0  6c20              LDR      r0,[r4,#0x40]         ;280  ; cpu_clockticks
0015f2  1c80              ADDS     r0,r0,#2              ;280
0015f4  f7febf44          B        |L12.1152|
0015f8  48bf              LDR      r0,|L12.6392|
0015fa  f7fffffe          BL       cpu_adc
0015fe  f7ffb934          B        |L12.2154|
001602  79a0              LDRB     r0,[r4,#6]            ;280  ; S
001604  49bb              LDR      r1,|L12.6388|
001606  1c40              ADDS     r0,r0,#1              ;280
001608  b2c0              UXTB     r0,r0                 ;280
00160a  71a0              STRB     r0,[r4,#6]            ;280
00160c  4408              ADD      r0,r0,r1              ;280
00160e  f8900100          LDRB     r0,[r0,#0x100]        ;280
001612  7120              STRB     r0,[r4,#4]            ;280
001614  7961              LDRB     r1,[r4,#5]            ;280  ; P
001616  2800              CMP      r0,#0                 ;280
001618  bf14              ITE      NE                    ;280
00161a  f00101fd          ANDNE    r1,r1,#0xfd           ;280
00161e  f0410102          ORREQ    r1,r1,#2              ;280
001622  7161              STRB     r1,[r4,#5]            ;280
001624  f0100f80          TST      r0,#0x80              ;280
001628  f43fa97e          BEQ      |L12.2344|
00162c  f7ffb977          B        |L12.2334|
001630  f7fffffe          BL       cpu_indabsx
001634  81e0              STRH     r0,[r4,#0xe]          ;280
001636  6c20              LDR      r0,[r4,#0x40]         ;280  ; cpu_clockticks
001638  1d80              ADDS     r0,r0,#6              ;280
00163a  f7febf21          B        |L12.1152|
00163e  48af              LDR      r0,|L12.6396|
001640  f7fffffe          BL       cpu_adc
001644  6c20              LDR      r0,[r4,#0x40]         ;280  ; cpu_clockticks
001646  1d00              ADDS     r0,r0,#4              ;280
001648  f7febf1a          B        |L12.1152|
00164c  48ab              LDR      r0,|L12.6396|
00164e  f7fffffe          BL       cpu_ror
001652  6c20              LDR      r0,[r4,#0x40]         ;280  ; cpu_clockticks
001654  1dc0              ADDS     r0,r0,#7              ;280
001656  f7febf13          B        |L12.1152|
00165a  bf00              NOP                            ;280
                  |L12.5724|
00165c  f7fffffe          BL       cpu_relative
001660  89e1              LDRH     r1,[r4,#0xe]          ;280  ; PC
001662  4408              ADD      r0,r0,r1              ;280
001664  81e0              STRH     r0,[r4,#0xe]          ;280
001666  6c20              LDR      r0,[r4,#0x40]         ;280  ; cpu_clockticks
001668  1cc0              ADDS     r0,r0,#3              ;280
00166a  f7febf09          B        |L12.1152|
00166e  48a4              LDR      r0,|L12.6400|
001670  f7fffffe          BL       cpu_sta
001674  6c20              LDR      r0,[r4,#0x40]         ;280  ; cpu_clockticks
001676  1d80              ADDS     r0,r0,#6              ;280
001678  f7febf02          B        |L12.1152|
00167c  89e0              LDRH     r0,[r4,#0xe]          ;280  ; PC
00167e  4a9d              LDR      r2,|L12.6388|
001680  1c40              ADDS     r0,r0,#1              ;280
001682  81e0              STRH     r0,[r4,#0xe]          ;280
001684  7a20              LDRB     r0,[r4,#8]            ;280  ; operand
001686  7921              LDRB     r1,[r4,#4]            ;280  ; Y
001688  5411              STRB     r1,[r2,r0]            ;280
00168a  f7febefb          B        |L12.1156|
00168e  89e0              LDRH     r0,[r4,#0xe]          ;280  ; PC
001690  4a98              LDR      r2,|L12.6388|
001692  1c40              ADDS     r0,r0,#1              ;280
001694  81e0              STRH     r0,[r4,#0xe]          ;280
001696  7a20              LDRB     r0,[r4,#8]            ;280  ; operand
001698  78a1              LDRB     r1,[r4,#2]            ;280  ; A
00169a  5411              STRB     r1,[r2,r0]            ;280
00169c  f7febef2          B        |L12.1156|
0016a0  89e0              LDRH     r0,[r4,#0xe]          ;280  ; PC
0016a2  4a94              LDR      r2,|L12.6388|
0016a4  1c40              ADDS     r0,r0,#1              ;280
0016a6  81e0              STRH     r0,[r4,#0xe]          ;280
0016a8  7a20              LDRB     r0,[r4,#8]            ;280  ; operand
0016aa  78e1              LDRB     r1,[r4,#3]            ;280  ; X
0016ac  5411              STRB     r1,[r2,r0]            ;280
0016ae  f7febee9          B        |L12.1156|
0016b2  7920              LDRB     r0,[r4,#4]            ;280  ; Y
0016b4  1e40              SUBS     r0,r0,#1              ;280
0016b6  f01000ff          ANDS     r0,r0,#0xff           ;280
0016ba  7120              STRB     r0,[r4,#4]            ;280
0016bc  7961              LDRB     r1,[r4,#5]            ;280  ; P
0016be  bf0c              ITE      EQ                    ;280
0016c0  f0410102          ORREQ    r1,r1,#2              ;280
0016c4  f0210102          BICNE    r1,r1,#2              ;280
0016c8  7161              STRB     r1,[r4,#5]            ;280
0016ca  f0100f80          TST      r0,#0x80              ;280
0016ce  f47eaf50          BNE      |L12.1394|
0016d2  bf00              NOP                            ;280
                  |L12.5844|
0016d4  f001007f          AND      r0,r1,#0x7f           ;280
                  |L12.5848|
0016d8  7160              STRB     r0,[r4,#5]            ;280
0016da  f7febed3          B        |L12.1156|
0016de  bf00              NOP                            ;280
0016e0  f7fffffe          BL       cpu_immediate
0016e4  f7fffffe          BL       cpu_getmemory
0016e8  7961              LDRB     r1,[r4,#5]            ;280  ; P
0016ea  f01000ff          ANDS     r0,r0,#0xff           ;280
0016ee  bf0c              ITE      EQ                    ;280
0016f0  f0410102          ORREQ    r1,r1,#2              ;280
0016f4  f0210102          BICNE    r1,r1,#2              ;280
0016f8  7161              STRB     r1,[r4,#5]            ;280
0016fa  f0100f80          TST      r0,#0x80              ;280
0016fe  b2c9              UXTB     r1,r1                 ;280
001700  bf14              ITE      NE                    ;280
001702  f0410180          ORRNE    r1,r1,#0x80           ;280
001706  f0210180          BICEQ    r1,r1,#0x80           ;280
00170a  7161              STRB     r1,[r4,#5]            ;280
00170c  f0100f40          TST      r0,#0x40              ;280
001710  b2c8              UXTB     r0,r1                 ;280
001712  bf18              IT       NE                    ;280
001714  f0400040          ORRNE    r0,r0,#0x40           ;280
001718  d1de              BNE      |L12.5848|
00171a  bf00              NOP                            ;280
                  |L12.5916|
00171c  f0200040          BIC      r0,r0,#0x40           ;280
001720  e7da              B        |L12.5848|
001722  78e0              LDRB     r0,[r4,#3]            ;280  ; X
001724  70a0              STRB     r0,[r4,#2]            ;280
001726  7961              LDRB     r1,[r4,#5]            ;280  ; P
001728  2800              CMP      r0,#0                 ;280
00172a  bf0c              ITE      EQ                    ;280
00172c  f0410102          ORREQ    r1,r1,#2              ;280
001730  f0210102          BICNE    r1,r1,#2              ;280
001734  7161              STRB     r1,[r4,#5]            ;280
001736  f0100f80          TST      r0,#0x80              ;280
00173a  f47eaf1a          BNE      |L12.1394|
00173e  e7c9              B        |L12.5844|
001740  f7fffffe          BL       cpu_abs
001744  f4004370          AND      r3,r0,#0xf000         ;280
001748  7922              LDRB     r2,[r4,#4]            ;280  ; Y
00174a  2100              MOVS     r1,#0                 ;280
00174c  131b              ASRS     r3,r3,#12             ;280
00174e  2b05              CMP      r3,#5                 ;280
001750  f4bfa88b          BCS      |L12.2154|
001754  e8dff003          TBB      [pc,r3]               ;280
001758  03030909          DCB      0x03,0x03,0x09,0x09
00175c  9500              DCB      0x95,0x00
                  |L12.5982|
00175e  4965              LDR      r1,|L12.6388|
001760  f3c0000a          UBFX     r0,r0,#0,#11          ;280
001764  540a              STRB     r2,[r1,r0]            ;280
001766  f7ffb880          B        |L12.2154|
00176a  f0000007          AND      r0,r0,#7              ;280
00176e  2808              CMP      r0,#8                 ;280
001770  f4bfa87b          BCS      |L12.2154|
001774  e8dff000          TBB      [pc,r0]               ;280
001778  fb06040a          DCB      0xfb,0x06,0x04,0x0a
00177c  0f1a2834          DCB      0x0f,0x1a,0x28,0x34
001780  f7ffb873          B        |L12.2154|
                  |L12.6020|
001784  485f              LDR      r0,|L12.6404|
001786  7042              STRB     r2,[r0,#1]            ;280
001788  f7ffb86f          B        |L12.2154|
                  |L12.6028|
00178c  485e              LDR      r0,|L12.6408|
00178e  f8802100          STRB     r2,[r0,#0x100]        ;280
001792  f7ffb86a          B        |L12.2154|
                  |L12.6038|
001796  485c              LDR      r0,|L12.6408|
001798  f8901100          LDRB     r1,[r0,#0x100]        ;280  ; Spr_Mem
00179c  5442              STRB     r2,[r0,r1]            ;280
00179e  f8901100          LDRB     r1,[r0,#0x100]        ;280  ; Spr_Mem
0017a2  1c49              ADDS     r1,r1,#1              ;280
0017a4  f8801100          STRB     r1,[r0,#0x100]        ;280
0017a8  f7ffb85f          B        |L12.2154|
0017ac  4857              LDR      r0,|L12.6412|
0017ae  7801              LDRB     r1,[r0,#0]            ;280  ; PPU_Latch_Flag
0017b0  b119              CBZ      r1,|L12.6074|
0017b2  2aef              CMP      r2,#0xef              ;280
0017b4  d87d              BHI      |L12.6322|
                  |L12.6070|
0017b6  4b56              LDR      r3,|L12.6416|
0017b8  e000              B        |L12.6076|
                  |L12.6074|
0017ba  4b56              LDR      r3,|L12.6420|
                  |L12.6076|
0017bc  f0810101          EOR      r1,r1,#1              ;280
0017c0  701a              STRB     r2,[r3,#0]            ;280
0017c2  7001              STRB     r1,[r0,#0]            ;280
0017c4  f7ffb851          B        |L12.2154|
                  |L12.6088|
0017c8  4853              LDR      r0,|L12.6424|
0017ca  7801              LDRB     r1,[r0,#0]            ;280  ; PPU_Mem
0017cc  eb022101          ADD      r1,r2,r1,LSL #8       ;280
0017d0  8001              STRH     r1,[r0,#0]            ;280
0017d2  484e              LDR      r0,|L12.6412|
0017d4  7801              LDRB     r1,[r0,#0]            ;280  ; PPU_Latch_Flag
0017d6  f0810101          EOR      r1,r1,#1              ;280
0017da  7001              STRB     r1,[r0,#0]            ;280
0017dc  f7ffb845          B        |L12.2154|
0017e0  4d4d              LDR      r5,|L12.6424|
0017e2  8828              LDRH     r0,[r5,#0]            ;280  ; PPU_Mem
0017e4  f4104170          ANDS     r1,r0,#0xf000         ;280
0017e8  bf18              IT       NE                    ;280
0017ea  f5b15f80          CMPNE    r1,#0x1000            ;280
0017ee  d03f              BEQ      |L12.6256|
0017f0  f5b15f00          CMP      r1,#0x2000            ;280
0017f4  d003              BEQ      |L12.6142|
0017f6  f5b15f40          CMP      r1,#0x3000            ;280
0017fa  d019              BEQ      |L12.6192|
0017fc  e038              B        |L12.6256|
                  |L12.6142|
0017fe  f3c0000b          UBFX     r0,r0,#0,#12          ;280
001802  f5b06f40          CMP      r0,#0xc00             ;280
001806  bf84              ITT      HI                    ;280
001808  69a9              LDRHI    r1,[r5,#0x18]         ;280  ; PPU_Mem
00180a  f5a06040          SUBHI    r0,r0,#0xc00          ;280
00180e  d80d              BHI      |L12.6188|
001810  f5b06f00          CMP      r0,#0x800             ;280
001814  bf84              ITT      HI                    ;280
001816  6969              LDRHI    r1,[r5,#0x14]         ;280  ; PPU_Mem
001818  f5a06000          SUBHI    r0,r0,#0x800          ;280
00181c  d806              BHI      |L12.6188|
00181e  f5b06f80          CMP      r0,#0x400             ;280
001822  bf86              ITTE     HI                    ;280
001824  6929              LDRHI    r1,[r5,#0x10]         ;280  ; PPU_Mem
001826  f5a06080          SUBHI    r0,r0,#0x400          ;280
00182a  68e9              LDRLS    r1,[r5,#0xc]          ;280  ; PPU_Mem
                  |L12.6188|
00182c  540a              STRB     r2,[r1,r0]            ;280
00182e  e01f              B        |L12.6256|
                  |L12.6192|
001830  f000011f          AND      r1,r0,#0x1f           ;280
001834  f000000f          AND      r0,r0,#0xf            ;280
001838  290f              CMP      r1,#0xf               ;280
00183a  4428              ADD      r0,r0,r5              ;280
00183c  d915              BLS      |L12.6250|
00183e  f880202c          STRB     r2,[r0,#0x2c]         ;280
001842  7828              LDRB     r0,[r5,#0]            ;280  ; PPU_Mem
001844  f0100f03          TST      r0,#3                 ;280
001848  d112              BNE      |L12.6256|
00184a  772a              STRB     r2,[r5,#0x1c]         ;280
00184c  f885202c          STRB     r2,[r5,#0x2c]         ;280
001850  f8852020          STRB     r2,[r5,#0x20]         ;280
001854  f8852030          STRB     r2,[r5,#0x30]         ;280
001858  f8852024          STRB     r2,[r5,#0x24]         ;280
00185c  f8852034          STRB     r2,[r5,#0x34]         ;280
001860  f8852028          STRB     r2,[r5,#0x28]         ;280
001864  f8852038          STRB     r2,[r5,#0x38]         ;280
001868  e002              B        |L12.6256|
                  |L12.6250|
00186a  7702              STRB     r2,[r0,#0x1c]         ;280
00186c  f7fffffe          BL       premap_palette
                  |L12.6256|
001870  4824              LDR      r0,|L12.6404|
001872  7800              LDRB     r0,[r0,#0]            ;280  ; PPU_Reg
001874  f0100f04          TST      r0,#4                 ;280
001878  d17a              BNE      |L12.6512|
00187a  e142              B        |L12.6914|
                  |L12.6268|
00187c  8028              STRH     r0,[r5,#0]            ;280
00187e  f7febff4          B        |L12.2154|
001882  f5a04380          SUB      r3,r0,#0x4000         ;280
001886  3b14              SUBS     r3,r3,#0x14           ;280
001888  d074              BEQ      |L12.6516|
00188a  f5a04380          SUB      r3,r0,#0x4000         ;280
00188e  3b16              SUBS     r3,r3,#0x16           ;280
001890  f47eafeb          BNE      |L12.2154|
001894  b362              CBZ      r2,|L12.6384|
001896  4821              LDR      r0,|L12.6428|
001898  7001              STRB     r1,[r0,#0]            ;280
00189a  4821              LDR      r0,|L12.6432|
00189c  6900              LDR      r0,[r0,#0x10]         ;280
00189e  43c0              MVNS     r0,r0                 ;280
0018a0  b283              UXTH     r3,r0                 ;280
0018a2  4820              LDR      r0,|L12.6436|
0018a4  8801              LDRH     r1,[r0,#0]            ;280  ; joys
0018a6  f5b16f40          CMP      r1,#0xc00             ;280
0018aa  bf98              IT       LS                    ;280
0018ac  f04f0c00          MOVLS    r12,#0                ;280
0018b0  e000              B        |L12.6324|
                  |L12.6322|
0018b2  e0d4              B        |L12.6750|
                  |L12.6324|
0018b4  bf88              IT       HI                    ;280
0018b6  f04f0c01          MOVHI    r12,#1                ;280
0018ba  ea43430c          ORR      r3,r3,r12,LSL #16     ;280
0018be  f5b16f80          CMP      r1,#0x400             ;280
0018c2  bf34              ITE      CC                    ;280
0018c4  2101              MOVCC    r1,#1                 ;280
0018c6  2100              MOVCS    r1,#0                 ;280
0018c8  ea434341          ORR      r3,r3,r1,LSL #17      ;280
0018cc  8841              LDRH     r1,[r0,#2]            ;280  ; joys
0018ce  f5b16f40          CMP      r1,#0xc00             ;280
0018d2  bf8c              ITE      HI                    ;280
0018d4  f04f0c01          MOVHI    r12,#1                ;280
0018d8  f04f0c00          MOVLS    r12,#0                ;280
0018dc  ea43438c          ORR      r3,r3,r12,LSL #18     ;280
0018e0  f5b16f80          CMP      r1,#0x400             ;280
0018e4  bf34              ITE      CC                    ;280
0018e6  2101              MOVCC    r1,#1                 ;280
0018e8  2100              MOVCS    r1,#0                 ;280
0018ea  ea4343c1          ORR      r3,r3,r1,LSL #19      ;280
0018ee  e01b              B        |L12.6440|
                  |L12.6384|
0018f0  e152              B        |L12.7064|
0018f2  0000              DCW      0x0000
                  |L12.6388|
                          DCD      ||.bss||
                  |L12.6392|
                          DCD      cpu_absy
                  |L12.6396|
                          DCD      cpu_absx
                  |L12.6400|
                          DCD      cpu_indx
                  |L12.6404|
                          DCD      PPU_Reg
                  |L12.6408|
                          DCD      Spr_Mem
                  |L12.6412|
                          DCD      PPU_Latch_Flag
                  |L12.6416|
                          DCD      PPU_BG_VScrlOrg
                  |L12.6420|
                          DCD      PPU_BG_HScrlOrg
                  |L12.6424|
                          DCD      PPU_Mem
                  |L12.6428|
                          DCD      ||.data||+0x9
                  |L12.6432|
                          DCD      0x40021000
                  |L12.6436|
                          DCD      joys
                  |L12.6440|
001928  88c1              LDRH     r1,[r0,#6]            ;280  ; joys
00192a  f5b16f40          CMP      r1,#0xc00             ;280
00192e  bf8c              ITE      HI                    ;280
001930  f04f0c01          MOVHI    r12,#1                ;280
001934  f04f0c00          MOVLS    r12,#0                ;280
001938  ea43530c          ORR      r3,r3,r12,LSL #20     ;280
00193c  f5b16f80          CMP      r1,#0x400             ;280
001940  bf34              ITE      CC                    ;280
001942  2101              MOVCC    r1,#1                 ;280
001944  2100              MOVCS    r1,#0                 ;280
001946  ea435141          ORR      r1,r3,r1,LSL #21      ;280
00194a  8880              LDRH     r0,[r0,#4]            ;280  ; joys
00194c  f5b06f40          CMP      r0,#0xc00             ;280
001950  bf8c              ITE      HI                    ;280
001952  2301              MOVHI    r3,#1                 ;280
001954  2300              MOVLS    r3,#0                 ;280
001956  ea415183          ORR      r1,r1,r3,LSL #22      ;280
00195a  f5b06f80          CMP      r0,#0x400             ;280
00195e  bf34              ITE      CC                    ;280
001960  2001              MOVCC    r0,#1                 ;280
001962  2000              MOVCS    r0,#0                 ;280
001964  ea4150c0          ORR      r0,r1,r0,LSL #23      ;280
001968  6160              STR      r0,[r4,#0x14]         ;280  ; joypad_state
00196a  6160              STR      r0,[r4,#0x14]         ;280  ; joypad_state
00196c  e123              B        |L12.7094|
00196e  e06c              B        |L12.6730|
                  |L12.6512|
001970  e0c4              B        |L12.6908|
001972  e7ff              B        |L12.6516|
                  |L12.6516|
001974  6c20              LDR      r0,[r4,#0x40]         ;280  ; cpu_clockticks
001976  2100              MOVS     r1,#0                 ;280
001978  f5a07000          SUB      r0,r0,#0x200          ;280
00197c  6420              STR      r0,[r4,#0x40]         ;280  ; cpu_clockticks
00197e  0910              LSRS     r0,r2,#4              ;280
001980  2810              CMP      r0,#0x10              ;280
001982  d21a              BCS      |L12.6586|
001984  e8dff000          TBB      [pc,r0]               ;280
001988  0a0a1919          DCB      0x0a,0x0a,0x19,0x19
00198c  19190808          DCB      0x19,0x19,0x08,0x08
001990  0e0e0e0e          DCB      0x0e,0x0e,0x0e,0x0e
001994  14141414          DCB      0x14,0x14,0x14,0x14
001998  f7febf67          B        |L12.2154|
00199c  48f8              LDR      r0,|L12.7552|
00199e  eb002102          ADD      r1,r0,r2,LSL #8       ;280
0019a2  e00a              B        |L12.6586|
0019a4  6ba0              LDR      r0,[r4,#0x38]         ;280  ; prg_rombank0
0019a6  eb002002          ADD      r0,r0,r2,LSL #8       ;280
0019aa  f5a04100          SUB      r1,r0,#0x8000         ;280
0019ae  e004              B        |L12.6586|
0019b0  6be0              LDR      r0,[r4,#0x3c]         ;280  ; prg_rombank1
0019b2  eb002002          ADD      r0,r0,r2,LSL #8       ;280
0019b6  f5a04140          SUB      r1,r0,#0xc000         ;280
                  |L12.6586|
0019ba  4af2              LDR      r2,|L12.7556|
0019bc  1a50              SUBS     r0,r2,r1              ;280
0019be  2800              CMP      r0,#0                 ;280
0019c0  dd04              BLE      |L12.6604|
0019c2  f5b07f80          CMP      r0,#0x100             ;280
0019c6  bfb8              IT       LT                    ;280
0019c8  2000              MOVLT    r0,#0                 ;280
0019ca  db06              BLT      |L12.6618|
                  |L12.6604|
0019cc  f44f7280          MOV      r2,#0x100             ;280
0019d0  48ec              LDR      r0,|L12.7556|
0019d2  f7fffffe          BL       __aeabi_memmove
0019d6  f7febf48          B        |L12.2154|
                  |L12.6618|
0019da  5c0b              LDRB     r3,[r1,r0]            ;280
0019dc  5413              STRB     r3,[r2,r0]            ;280
0019de  180b              ADDS     r3,r1,r0              ;280
0019e0  eb020c00          ADD      r12,r2,r0             ;280
0019e4  785b              LDRB     r3,[r3,#1]            ;280
0019e6  1c80              ADDS     r0,r0,#2              ;280
0019e8  f88c3001          STRB     r3,[r12,#1]           ;280
0019ec  f5b07f80          CMP      r0,#0x100             ;280
0019f0  dbf3              BLT      |L12.6618|
0019f2  f7febf3a          B        |L12.2154|
                  |L12.6646|
0019f6  7002              STRB     r2,[r0,#0]            ;280
0019f8  f7febf37          B        |L12.2154|
0019fc  48e2              LDR      r0,|L12.7560|
0019fe  f7fffffe          BL       cpu_sta
001a02  f7febf32          B        |L12.2154|
001a06  bf00              NOP                            ;280
001a08  f7fffffe          BL       cpu_abs
001a0c  f4004370          AND      r3,r0,#0xf000         ;280
001a10  78e2              LDRB     r2,[r4,#3]            ;280  ; X
001a12  2100              MOVS     r1,#0                 ;280
001a14  131b              ASRS     r3,r3,#12             ;280
001a16  2b05              CMP      r3,#5                 ;280
001a18  f4beaf27          BCS      |L12.2154|
001a1c  e8dff003          TBB      [pc,r3]               ;280
001a20  03030404          DCB      0x03,0x03,0x04,0x04
001a24  7400              DCB      0x74,0x00
001a26  e69a              B        |L12.5982|
001a28  f0000007          AND      r0,r0,#7              ;280
001a2c  2808              CMP      r0,#8                 ;280
001a2e  f4beaf1c          BCS      |L12.2154|
001a32  e8dff000          TBB      [pc,r0]               ;280
001a36  0a09              DCB      0x0a,0x09
001a38  0706050c          DCB      0x07,0x06,0x05,0x0c
001a3c  0416              DCB      0x04,0x16
001a3e  e6c3              B        |L12.6088|
001a40  e6a9              B        |L12.6038|
001a42  e6a3              B        |L12.6028|
001a44  f7febf11          B        |L12.2154|
001a48  e69c              B        |L12.6020|
                  |L12.6730|
001a4a  48d0              LDR      r0,|L12.7564|
001a4c  e7d3              B        |L12.6646|
001a4e  48d0              LDR      r0,|L12.7568|
001a50  7801              LDRB     r1,[r0,#0]            ;280  ; PPU_Latch_Flag
001a52  2900              CMP      r1,#0                 ;280
001a54  f43faeb1          BEQ      |L12.6074|
001a58  2aef              CMP      r2,#0xef              ;280
001a5a  f67faeac          BLS      |L12.6070|
                  |L12.6750|
001a5e  2200              MOVS     r2,#0                 ;280
001a60  e6a9              B        |L12.6070|
001a62  4dcc              LDR      r5,|L12.7572|
001a64  8828              LDRH     r0,[r5,#0]            ;280  ; PPU_Mem
001a66  f4104170          ANDS     r1,r0,#0xf000         ;280
001a6a  bf18              IT       NE                    ;280
001a6c  f5b15f80          CMPNE    r1,#0x1000            ;280
001a70  d03f              BEQ      |L12.6898|
001a72  f5b15f00          CMP      r1,#0x2000            ;280
001a76  d003              BEQ      |L12.6784|
001a78  f5b15f40          CMP      r1,#0x3000            ;280
001a7c  d019              BEQ      |L12.6834|
001a7e  e038              B        |L12.6898|
                  |L12.6784|
001a80  f3c0000b          UBFX     r0,r0,#0,#12          ;280
001a84  f5b06f40          CMP      r0,#0xc00             ;280
001a88  bf84              ITT      HI                    ;280
001a8a  69a9              LDRHI    r1,[r5,#0x18]         ;280  ; PPU_Mem
001a8c  f5a06040          SUBHI    r0,r0,#0xc00          ;280
001a90  d80d              BHI      |L12.6830|
001a92  f5b06f00          CMP      r0,#0x800             ;280
001a96  bf84              ITT      HI                    ;280
001a98  6969              LDRHI    r1,[r5,#0x14]         ;280  ; PPU_Mem
001a9a  f5a06000          SUBHI    r0,r0,#0x800          ;280
001a9e  d806              BHI      |L12.6830|
001aa0  f5b06f80          CMP      r0,#0x400             ;280
001aa4  bf86              ITTE     HI                    ;280
001aa6  6929              LDRHI    r1,[r5,#0x10]         ;280  ; PPU_Mem
001aa8  f5a06080          SUBHI    r0,r0,#0x400          ;280
001aac  68e9              LDRLS    r1,[r5,#0xc]          ;280  ; PPU_Mem
                  |L12.6830|
001aae  540a              STRB     r2,[r1,r0]            ;280
001ab0  e01f              B        |L12.6898|
                  |L12.6834|
001ab2  f000011f          AND      r1,r0,#0x1f           ;280
001ab6  f000000f          AND      r0,r0,#0xf            ;280
001aba  290f              CMP      r1,#0xf               ;280
001abc  4428              ADD      r0,r0,r5              ;280
001abe  d915              BLS      |L12.6892|
001ac0  f880202c          STRB     r2,[r0,#0x2c]         ;280
001ac4  7828              LDRB     r0,[r5,#0]            ;280  ; PPU_Mem
001ac6  f0100f03          TST      r0,#3                 ;280
001aca  d112              BNE      |L12.6898|
001acc  772a              STRB     r2,[r5,#0x1c]         ;280
001ace  f885202c          STRB     r2,[r5,#0x2c]         ;280
001ad2  f8852020          STRB     r2,[r5,#0x20]         ;280
001ad6  f8852030          STRB     r2,[r5,#0x30]         ;280
001ada  f8852024          STRB     r2,[r5,#0x24]         ;280
001ade  f8852034          STRB     r2,[r5,#0x34]         ;280
001ae2  f8852028          STRB     r2,[r5,#0x28]         ;280
001ae6  f8852038          STRB     r2,[r5,#0x38]         ;280
001aea  e002              B        |L12.6898|
                  |L12.6892|
001aec  7702              STRB     r2,[r0,#0x1c]         ;280
001aee  f7fffffe          BL       premap_palette
                  |L12.6898|
001af2  48a6              LDR      r0,|L12.7564|
001af4  7800              LDRB     r0,[r0,#0]            ;280  ; PPU_Reg
001af6  f0100f04          TST      r0,#4                 ;280
001afa  d002              BEQ      |L12.6914|
                  |L12.6908|
001afc  8828              LDRH     r0,[r5,#0]            ;280  ; PPU_Mem
001afe  3020              ADDS     r0,r0,#0x20           ;280
001b00  e6bc              B        |L12.6268|
                  |L12.6914|
001b02  8828              LDRH     r0,[r5,#0]            ;280  ; PPU_Mem
001b04  1c40              ADDS     r0,r0,#1              ;280
001b06  e6b9              B        |L12.6268|
001b08  f5a04380          SUB      r3,r0,#0x4000         ;280
001b0c  3b14              SUBS     r3,r3,#0x14           ;280
001b0e  d054              BEQ      |L12.7098|
001b10  f5a04380          SUB      r3,r0,#0x4000         ;280
001b14  3b16              SUBS     r3,r3,#0x16           ;280
001b16  f47eaea8          BNE      |L12.2154|
001b1a  b3ea              CBZ      r2,|L12.7064|
001b1c  489e              LDR      r0,|L12.7576|
001b1e  7001              STRB     r1,[r0,#0]            ;280
001b20  489e              LDR      r0,|L12.7580|
001b22  6900              LDR      r0,[r0,#0x10]         ;280
001b24  43c0              MVNS     r0,r0                 ;280
001b26  b283              UXTH     r3,r0                 ;280
001b28  489d              LDR      r0,|L12.7584|
001b2a  8801              LDRH     r1,[r0,#0]            ;280  ; joys
001b2c  f5b16f40          CMP      r1,#0xc00             ;280
001b30  bf94              ITE      LS                    ;280
001b32  f04f0c00          MOVLS    r12,#0                ;280
001b36  f04f0c01          MOVHI    r12,#1                ;280
001b3a  ea43430c          ORR      r3,r3,r12,LSL #16     ;280
001b3e  f5b16f80          CMP      r1,#0x400             ;280
001b42  bf34              ITE      CC                    ;280
001b44  2101              MOVCC    r1,#1                 ;280
001b46  2100              MOVCS    r1,#0                 ;280
001b48  ea434341          ORR      r3,r3,r1,LSL #17      ;280
001b4c  8841              LDRH     r1,[r0,#2]            ;280  ; joys
001b4e  f5b16f40          CMP      r1,#0xc00             ;280
001b52  bf8c              ITE      HI                    ;280
001b54  f04f0c01          MOVHI    r12,#1                ;280
001b58  f04f0c00          MOVLS    r12,#0                ;280
001b5c  ea43438c          ORR      r3,r3,r12,LSL #18     ;280
001b60  f5b16f80          CMP      r1,#0x400             ;280
001b64  bf34              ITE      CC                    ;280
001b66  2101              MOVCC    r1,#1                 ;280
001b68  2100              MOVCS    r1,#0                 ;280
001b6a  ea4343c1          ORR      r3,r3,r1,LSL #19      ;280
001b6e  88c1              LDRH     r1,[r0,#6]            ;280  ; joys
001b70  f5b16f40          CMP      r1,#0xc00             ;280
001b74  bf8c              ITE      HI                    ;280
001b76  f04f0c01          MOVHI    r12,#1                ;280
001b7a  f04f0c00          MOVLS    r12,#0                ;280
001b7e  ea43530c          ORR      r3,r3,r12,LSL #20     ;280
001b82  f5b16f80          CMP      r1,#0x400             ;280
001b86  bf34              ITE      CC                    ;280
001b88  2101              MOVCC    r1,#1                 ;280
001b8a  2100              MOVCS    r1,#0                 ;280
001b8c  ea435141          ORR      r1,r3,r1,LSL #21      ;280
001b90  8883              LDRH     r3,[r0,#4]            ;280  ; joys
001b92  f5b36f40          CMP      r3,#0xc00             ;280
001b96  e000              B        |L12.7066|
                  |L12.7064|
001b98  e00d              B        |L12.7094|
                  |L12.7066|
001b9a  bf8c              ITE      HI                    ;280
001b9c  2001              MOVHI    r0,#1                 ;280
001b9e  2000              MOVLS    r0,#0                 ;280
001ba0  ea415080          ORR      r0,r1,r0,LSL #22      ;280
001ba4  f5b36f80          CMP      r3,#0x400             ;280
001ba8  bf34              ITE      CC                    ;280
001baa  2101              MOVCC    r1,#1                 ;280
001bac  2100              MOVCS    r1,#0                 ;280
001bae  ea4050c1          ORR      r0,r0,r1,LSL #23      ;280
001bb2  6160              STR      r0,[r4,#0x14]         ;280  ; joypad_state
001bb4  6160              STR      r0,[r4,#0x14]         ;280  ; joypad_state
                  |L12.7094|
001bb6  487b              LDR      r0,|L12.7588|
001bb8  e71d              B        |L12.6646|
                  |L12.7098|
001bba  6c20              LDR      r0,[r4,#0x40]         ;280  ; cpu_clockticks
001bbc  2100              MOVS     r1,#0                 ;280
001bbe  f5a07000          SUB      r0,r0,#0x200          ;280
001bc2  6420              STR      r0,[r4,#0x40]         ;280  ; cpu_clockticks
001bc4  0910              LSRS     r0,r2,#4              ;280
001bc6  2810              CMP      r0,#0x10              ;280
001bc8  d21a              BCS      |L12.7168|
001bca  e8dff000          TBB      [pc,r0]               ;280
001bce  0a0a              DCB      0x0a,0x0a
001bd0  19191919          DCB      0x19,0x19,0x19,0x19
001bd4  08080e0e          DCB      0x08,0x08,0x0e,0x0e
001bd8  0e0e1414          DCB      0x0e,0x0e,0x14,0x14
001bdc  1414              DCB      0x14,0x14
001bde  f7febe44          B        |L12.2154|
001be2  4867              LDR      r0,|L12.7552|
001be4  eb002102          ADD      r1,r0,r2,LSL #8       ;280
001be8  e00a              B        |L12.7168|
001bea  6ba0              LDR      r0,[r4,#0x38]         ;280  ; prg_rombank0
001bec  eb002002          ADD      r0,r0,r2,LSL #8       ;280
001bf0  f5a04100          SUB      r1,r0,#0x8000         ;280
001bf4  e004              B        |L12.7168|
001bf6  6be0              LDR      r0,[r4,#0x3c]         ;280  ; prg_rombank1
001bf8  eb002002          ADD      r0,r0,r2,LSL #8       ;280
001bfc  f5a04140          SUB      r1,r0,#0xc000         ;280
                  |L12.7168|
001c00  4a60              LDR      r2,|L12.7556|
001c02  1a50              SUBS     r0,r2,r1              ;280
001c04  2800              CMP      r0,#0                 ;280
001c06  f77faee1          BLE      |L12.6604|
001c0a  f5b07f80          CMP      r0,#0x100             ;280
001c0e  bfb8              IT       LT                    ;280
001c10  2000              MOVLT    r0,#0                 ;280
001c12  f6bfaedb          BGE      |L12.6604|
                  |L12.7190|
001c16  5c0b              LDRB     r3,[r1,r0]            ;280
001c18  5413              STRB     r3,[r2,r0]            ;280
001c1a  180b              ADDS     r3,r1,r0              ;280
001c1c  f893c001          LDRB     r12,[r3,#1]           ;280
001c20  1813              ADDS     r3,r2,r0              ;280
001c22  1c80              ADDS     r0,r0,#2              ;280
001c24  f883c001          STRB     r12,[r3,#1]           ;280
001c28  f5b07f80          CMP      r0,#0x100             ;280
001c2c  dbf3              BLT      |L12.7190|
001c2e  f7febe1c          B        |L12.2154|
001c32  7960              LDRB     r0,[r4,#5]            ;280  ; P
001c34  f0100f01          TST      r0,#1                 ;280
001c38  f47fa90d          BNE      |L12.3670|
001c3c  f7ffb8ff          B        |L12.3646|
001c40  4859              LDR      r0,|L12.7592|
001c42  f7fffffe          BL       cpu_sta
001c46  6c20              LDR      r0,[r4,#0x40]         ;280  ; cpu_clockticks
001c48  1d80              ADDS     r0,r0,#6              ;280
001c4a  f7febc19          B        |L12.1152|
001c4e  89e0              LDRH     r0,[r4,#0xe]          ;280  ; PC
001c50  4a4b              LDR      r2,|L12.7552|
001c52  1c40              ADDS     r0,r0,#1              ;280
001c54  81e0              STRH     r0,[r4,#0xe]          ;280
001c56  7a20              LDRB     r0,[r4,#8]            ;280  ; operand
001c58  f04f0c00          MOV      r12,#0                ;280
001c5c  4663              MOV      r3,r12                ;280
001c5e  5c11              LDRB     r1,[r2,r0]            ;280
001c60  78a0              LDRB     r0,[r4,#2]            ;280  ; A
001c62  ea4f3c2c          ASR      r12,r12,#12           ;280
001c66  f1bc0f05          CMP      r12,#5                ;280
001c6a  f4beac20          BCS      |L12.1198|
001c6e  e8dff00c          TBB      [pc,r12]              ;280
001c72  0303              DCB      0x03,0x03
001c74  0606af00          DCB      0x06,0x06,0xaf,0x00
001c78  5450              STRB     r0,[r2,r1]            ;280
001c7a  f7febc18          B        |L12.1198|
001c7e  f0010107          AND      r1,r1,#7              ;280
001c82  2908              CMP      r1,#8                 ;280
001c84  f4beac13          BCS      |L12.1198|
001c88  e8dff001          TBB      [pc,r1]               ;280
001c8c  0608040c          DCB      0x06,0x08,0x04,0x0c
001c90  0e192935          DCB      0x0e,0x19,0x29,0x35
001c94  f7febc0b          B        |L12.1198|
001c98  493c              LDR      r1,|L12.7564|
001c9a  e01d              B        |L12.7384|
001c9c  493b              LDR      r1,|L12.7564|
001c9e  7048              STRB     r0,[r1,#1]            ;280
001ca0  f7febc05          B        |L12.1198|
001ca4  4937              LDR      r1,|L12.7556|
001ca6  e006              B        |L12.7350|
001ca8  4936              LDR      r1,|L12.7556|
001caa  f8912100          LDRB     r2,[r1,#0x100]        ;280  ; Spr_Mem
001cae  5488              STRB     r0,[r1,r2]            ;280
001cb0  f8910100          LDRB     r0,[r1,#0x100]        ;280  ; Spr_Mem
001cb4  1c40              ADDS     r0,r0,#1              ;280
                  |L12.7350|
001cb6  f8810100          STRB     r0,[r1,#0x100]        ;280
001cba  f7febbf8          B        |L12.1198|
001cbe  4934              LDR      r1,|L12.7568|
001cc0  780a              LDRB     r2,[r1,#0]            ;280  ; PPU_Latch_Flag
001cc2  2a00              CMP      r2,#0                 ;280
001cc4  bf08              IT       EQ                    ;280
001cc6  4b39              LDREQ    r3,|L12.7596|
001cc8  d003              BEQ      |L12.7378|
001cca  28ef              CMP      r0,#0xef              ;280
001ccc  bf88              IT       HI                    ;280
001cce  2000              MOVHI    r0,#0                 ;280
001cd0  4b37              LDR      r3,|L12.7600|
                  |L12.7378|
001cd2  7018              STRB     r0,[r3,#0]            ;280
001cd4  f0820001          EOR      r0,r2,#1              ;280
                  |L12.7384|
001cd8  7008              STRB     r0,[r1,#0]            ;280
001cda  f7febbe8          B        |L12.1198|
001cde  492d              LDR      r1,|L12.7572|
001ce0  780a              LDRB     r2,[r1,#0]            ;280  ; PPU_Mem
001ce2  eb002002          ADD      r0,r0,r2,LSL #8       ;280
001ce6  8008              STRH     r0,[r1,#0]            ;280
001ce8  4829              LDR      r0,|L12.7568|
001cea  7801              LDRB     r1,[r0,#0]            ;280  ; PPU_Latch_Flag
001cec  f0810101          EOR      r1,r1,#1              ;280
001cf0  7001              STRB     r1,[r0,#0]            ;280
001cf2  f7febbdc          B        |L12.1198|
001cf6  4d27              LDR      r5,|L12.7572|
001cf8  8829              LDRH     r1,[r5,#0]            ;280  ; PPU_Mem
001cfa  f4114270          ANDS     r2,r1,#0xf000         ;280
001cfe  bf18              IT       NE                    ;280
001d00  f5b25f80          CMPNE    r2,#0x1000            ;280
001d04  d059              BEQ      |L12.7610|
001d06  f5b25f00          CMP      r2,#0x2000            ;280
001d0a  d003              BEQ      |L12.7444|
001d0c  f5b25f40          CMP      r2,#0x3000            ;280
001d10  d019              BEQ      |L12.7494|
001d12  e052              B        |L12.7610|
                  |L12.7444|
001d14  f3c1010b          UBFX     r1,r1,#0,#12          ;280
001d18  f5b16f40          CMP      r1,#0xc00             ;280
001d1c  bf84              ITT      HI                    ;280
001d1e  69aa              LDRHI    r2,[r5,#0x18]         ;280  ; PPU_Mem
001d20  f5a16140          SUBHI    r1,r1,#0xc00          ;280
001d24  d80d              BHI      |L12.7490|
001d26  f5b16f00          CMP      r1,#0x800             ;280
001d2a  bf84              ITT      HI                    ;280
001d2c  696a              LDRHI    r2,[r5,#0x14]         ;280  ; PPU_Mem
001d2e  f5a16100          SUBHI    r1,r1,#0x800          ;280
001d32  d806              BHI      |L12.7490|
001d34  f5b16f80          CMP      r1,#0x400             ;280
001d38  bf86              ITTE     HI                    ;280
001d3a  692a              LDRHI    r2,[r5,#0x10]         ;280  ; PPU_Mem
001d3c  f5a16180          SUBHI    r1,r1,#0x400          ;280
001d40  68ea              LDRLS    r2,[r5,#0xc]          ;280  ; PPU_Mem
                  |L12.7490|
001d42  5450              STRB     r0,[r2,r1]            ;280
001d44  e039              B        |L12.7610|
                  |L12.7494|
001d46  f001021f          AND      r2,r1,#0x1f           ;280
001d4a  f001010f          AND      r1,r1,#0xf            ;280
001d4e  2a0f              CMP      r2,#0xf               ;280
001d50  4429              ADD      r1,r1,r5              ;280
001d52  d92f              BLS      |L12.7604|
001d54  f881002c          STRB     r0,[r1,#0x2c]         ;280
001d58  7829              LDRB     r1,[r5,#0]            ;280  ; PPU_Mem
001d5a  f0110f03          TST      r1,#3                 ;280
001d5e  d12c              BNE      |L12.7610|
001d60  7728              STRB     r0,[r5,#0x1c]         ;280
001d62  f885002c          STRB     r0,[r5,#0x2c]         ;280
001d66  f8850020          STRB     r0,[r5,#0x20]         ;280
001d6a  f8850030          STRB     r0,[r5,#0x30]         ;280
001d6e  f8850024          STRB     r0,[r5,#0x24]         ;280
001d72  f8850034          STRB     r0,[r5,#0x34]         ;280
001d76  f8850028          STRB     r0,[r5,#0x28]         ;280
001d7a  f8850038          STRB     r0,[r5,#0x38]         ;280
001d7e  e01c              B        |L12.7610|
                  |L12.7552|
                          DCD      ||.bss||
                  |L12.7556|
                          DCD      Spr_Mem
                  |L12.7560|
                          DCD      cpu_abs
                  |L12.7564|
                          DCD      PPU_Reg
                  |L12.7568|
                          DCD      PPU_Latch_Flag
                  |L12.7572|
                          DCD      PPU_Mem
                  |L12.7576|
                          DCD      ||.data||+0x9
                  |L12.7580|
                          DCD      0x40021000
                  |L12.7584|
                          DCD      joys
                  |L12.7588|
                          DCD      ||.data||+0xb
                  |L12.7592|
                          DCD      cpu_indy
                  |L12.7596|
                          DCD      PPU_BG_HScrlOrg
                  |L12.7600|
                          DCD      PPU_BG_VScrlOrg
                  |L12.7604|
001db4  7708              STRB     r0,[r1,#0x1c]         ;280
001db6  f7fffffe          BL       premap_palette
                  |L12.7610|
001dba  48fe              LDR      r0,|L12.8628|
001dbc  7800              LDRB     r0,[r0,#0]            ;280  ; PPU_Reg
001dbe  f0100f04          TST      r0,#4                 ;280
001dc2  8828              LDRH     r0,[r5,#0]            ;280  ; PPU_Mem
001dc4  bf14              ITE      NE                    ;280
001dc6  3020              ADDNE    r0,r0,#0x20           ;280
001dc8  1c40              ADDEQ    r0,r0,#1              ;280
001dca  8028              STRH     r0,[r5,#0]            ;280
001dcc  f7febb6f          B        |L12.1198|
001dd0  f5a14c80          SUB      r12,r1,#0x4000        ;280
001dd4  f1bc0c14          SUBS     r12,r12,#0x14         ;280
001dd8  d056              BEQ      |L12.7816|
001dda  f5a14280          SUB      r2,r1,#0x4000         ;280
001dde  3a16              SUBS     r2,r2,#0x16           ;280
001de0  f47eab65          BNE      |L12.1198|
001de4  b3e8              CBZ      r0,|L12.7778|
001de6  49f4              LDR      r1,|L12.8632|
001de8  700b              STRB     r3,[r1,#0]            ;280
001dea  49f4              LDR      r1,|L12.8636|
001dec  6909              LDR      r1,[r1,#0x10]         ;280
001dee  43c9              MVNS     r1,r1                 ;280
001df0  b28b              UXTH     r3,r1                 ;280
001df2  49f3              LDR      r1,|L12.8640|
001df4  880a              LDRH     r2,[r1,#0]            ;280  ; joys
001df6  f5b26f40          CMP      r2,#0xc00             ;280
001dfa  bf94              ITE      LS                    ;280
001dfc  f04f0c00          MOVLS    r12,#0                ;280
001e00  f04f0c01          MOVHI    r12,#1                ;280
001e04  ea43430c          ORR      r3,r3,r12,LSL #16     ;280
001e08  f5b26f80          CMP      r2,#0x400             ;280
001e0c  bf34              ITE      CC                    ;280
001e0e  2201              MOVCC    r2,#1                 ;280
001e10  2200              MOVCS    r2,#0                 ;280
001e12  ea434242          ORR      r2,r3,r2,LSL #17      ;280
001e16  884b              LDRH     r3,[r1,#2]            ;280  ; joys
001e18  f5b36f40          CMP      r3,#0xc00             ;280
001e1c  bf8c              ITE      HI                    ;280
001e1e  f04f0c01          MOVHI    r12,#1                ;280
001e22  f04f0c00          MOVLS    r12,#0                ;280
001e26  ea42428c          ORR      r2,r2,r12,LSL #18     ;280
001e2a  f5b36f80          CMP      r3,#0x400             ;280
001e2e  bf34              ITE      CC                    ;280
001e30  2301              MOVCC    r3,#1                 ;280
001e32  2300              MOVCS    r3,#0                 ;280
001e34  ea4243c3          ORR      r3,r2,r3,LSL #19      ;280
001e38  88ca              LDRH     r2,[r1,#6]            ;280  ; joys
001e3a  f5b26f40          CMP      r2,#0xc00             ;280
001e3e  bf8c              ITE      HI                    ;280
001e40  f04f0c01          MOVHI    r12,#1                ;280
001e44  f04f0c00          MOVLS    r12,#0                ;280
001e48  ea43530c          ORR      r3,r3,r12,LSL #20     ;280
001e4c  f5b26f80          CMP      r2,#0x400             ;280
001e50  bf34              ITE      CC                    ;280
001e52  2201              MOVCC    r2,#1                 ;280
001e54  2200              MOVCS    r2,#0                 ;280
001e56  ea435242          ORR      r2,r3,r2,LSL #21      ;280
001e5a  8889              LDRH     r1,[r1,#4]            ;280  ; joys
001e5c  f5b16f40          CMP      r1,#0xc00             ;280
001e60  e000              B        |L12.7780|
                  |L12.7778|
001e62  e00d              B        |L12.7808|
                  |L12.7780|
001e64  bf8c              ITE      HI                    ;280
001e66  2301              MOVHI    r3,#1                 ;280
001e68  2300              MOVLS    r3,#0                 ;280
001e6a  ea425283          ORR      r2,r2,r3,LSL #22      ;280
001e6e  f5b16f80          CMP      r1,#0x400             ;280
001e72  bf34              ITE      CC                    ;280
001e74  2101              MOVCC    r1,#1                 ;280
001e76  2100              MOVCS    r1,#0                 ;280
001e78  ea4251c1          ORR      r1,r2,r1,LSL #23      ;280
001e7c  6161              STR      r1,[r4,#0x14]         ;280  ; joypad_state
001e7e  6161              STR      r1,[r4,#0x14]         ;280  ; joypad_state
                  |L12.7808|
001e80  49d0              LDR      r1,|L12.8644|
001e82  7008              STRB     r0,[r1,#0]            ;280
001e84  f7febb13          B        |L12.1198|
                  |L12.7816|
001e88  6c21              LDR      r1,[r4,#0x40]         ;280  ; cpu_clockticks
001e8a  0903              LSRS     r3,r0,#4              ;280
001e8c  f5a17100          SUB      r1,r1,#0x200          ;280
001e90  6421              STR      r1,[r4,#0x40]         ;280  ; cpu_clockticks
001e92  2100              MOVS     r1,#0                 ;280
001e94  2b10              CMP      r3,#0x10              ;280
001e96  d219              BCS      |L12.7884|
001e98  e8dff003          TBB      [pc,r3]               ;280
001e9c  0a0a1818          DCB      0x0a,0x0a,0x18,0x18
001ea0  18180808          DCB      0x18,0x18,0x08,0x08
001ea4  0d0d0d0d          DCB      0x0d,0x0d,0x0d,0x0d
001ea8  13131313          DCB      0x13,0x13,0x13,0x13
001eac  f7febaff          B        |L12.1198|
001eb0  eb022100          ADD      r1,r2,r0,LSL #8       ;280
001eb4  e00a              B        |L12.7884|
001eb6  6ba1              LDR      r1,[r4,#0x38]         ;280  ; prg_rombank0
001eb8  eb012000          ADD      r0,r1,r0,LSL #8       ;280
001ebc  f5a04100          SUB      r1,r0,#0x8000         ;280
001ec0  e004              B        |L12.7884|
001ec2  6be1              LDR      r1,[r4,#0x3c]         ;280  ; prg_rombank1
001ec4  eb012000          ADD      r0,r1,r0,LSL #8       ;280
001ec8  f5a04140          SUB      r1,r0,#0xc000         ;280
                  |L12.7884|
001ecc  4abe              LDR      r2,|L12.8648|
001ece  1a50              SUBS     r0,r2,r1              ;280
001ed0  2800              CMP      r0,#0                 ;280
001ed2  dd04              BLE      |L12.7902|
001ed4  f5b07f80          CMP      r0,#0x100             ;280
001ed8  bfb8              IT       LT                    ;280
001eda  2000              MOVLT    r0,#0                 ;280
001edc  db06              BLT      |L12.7916|
                  |L12.7902|
001ede  f44f7280          MOV      r2,#0x100             ;280
001ee2  48b9              LDR      r0,|L12.8648|
001ee4  f7fffffe          BL       __aeabi_memmove
001ee8  f7febae1          B        |L12.1198|
                  |L12.7916|
001eec  5c0b              LDRB     r3,[r1,r0]            ;280
001eee  5413              STRB     r3,[r2,r0]            ;280
001ef0  180b              ADDS     r3,r1,r0              ;280
001ef2  eb020c00          ADD      r12,r2,r0             ;280
001ef6  785b              LDRB     r3,[r3,#1]            ;280
001ef8  1c80              ADDS     r0,r0,#2              ;280
001efa  f88c3001          STRB     r3,[r12,#1]           ;280
001efe  f5b07f80          CMP      r0,#0x100             ;280
001f02  dbf3              BLT      |L12.7916|
001f04  f7febad3          B        |L12.1198|
001f08  89e0              LDRH     r0,[r4,#0xe]          ;280  ; PC
001f0a  4ab0              LDR      r2,|L12.8652|
001f0c  1c40              ADDS     r0,r0,#1              ;280
001f0e  81e0              STRH     r0,[r4,#0xe]          ;280
001f10  7a20              LDRB     r0,[r4,#8]            ;280  ; operand
001f12  78e1              LDRB     r1,[r4,#3]            ;280  ; X
001f14  4408              ADD      r0,r0,r1              ;280
001f16  b2c0              UXTB     r0,r0                 ;280
001f18  7921              LDRB     r1,[r4,#4]            ;280  ; Y
001f1a  5411              STRB     r1,[r2,r0]            ;280
001f1c  6c20              LDR      r0,[r4,#0x40]         ;280  ; cpu_clockticks
001f1e  1d00              ADDS     r0,r0,#4              ;280
001f20  f7febaae          B        |L12.1152|
001f24  89e0              LDRH     r0,[r4,#0xe]          ;280  ; PC
001f26  4aa9              LDR      r2,|L12.8652|
001f28  1c40              ADDS     r0,r0,#1              ;280
001f2a  81e0              STRH     r0,[r4,#0xe]          ;280
001f2c  7a20              LDRB     r0,[r4,#8]            ;280  ; operand
001f2e  78e1              LDRB     r1,[r4,#3]            ;280  ; X
001f30  4408              ADD      r0,r0,r1              ;280
001f32  b2c0              UXTB     r0,r0                 ;280
001f34  78a1              LDRB     r1,[r4,#2]            ;280  ; A
001f36  5411              STRB     r1,[r2,r0]            ;280
001f38  6c20              LDR      r0,[r4,#0x40]         ;280  ; cpu_clockticks
001f3a  1d00              ADDS     r0,r0,#4              ;280
001f3c  f7febaa0          B        |L12.1152|
001f40  89e0              LDRH     r0,[r4,#0xe]          ;280  ; PC
001f42  4aa2              LDR      r2,|L12.8652|
001f44  1c40              ADDS     r0,r0,#1              ;280
001f46  81e0              STRH     r0,[r4,#0xe]          ;280
001f48  7a20              LDRB     r0,[r4,#8]            ;280  ; operand
001f4a  7921              LDRB     r1,[r4,#4]            ;280  ; Y
001f4c  4408              ADD      r0,r0,r1              ;280
001f4e  b2c0              UXTB     r0,r0                 ;280
001f50  78e1              LDRB     r1,[r4,#3]            ;280  ; X
001f52  5411              STRB     r1,[r2,r0]            ;280
001f54  6c20              LDR      r0,[r4,#0x40]         ;280  ; cpu_clockticks
001f56  1d00              ADDS     r0,r0,#4              ;280
001f58  f7feba92          B        |L12.1152|
001f5c  7920              LDRB     r0,[r4,#4]            ;280  ; Y
001f5e  70a0              STRB     r0,[r4,#2]            ;280
001f60  7961              LDRB     r1,[r4,#5]            ;280  ; P
001f62  2800              CMP      r0,#0                 ;280
001f64  bf0c              ITE      EQ                    ;280
001f66  f0410102          ORREQ    r1,r1,#2              ;280
001f6a  f0210102          BICNE    r1,r1,#2              ;280
001f6e  7161              STRB     r1,[r4,#5]            ;280
001f70  f0100f80          TST      r0,#0x80              ;280
001f74  f47eaafd          BNE      |L12.1394|
001f78  f7ffbbac          B        |L12.5844|
001f7c  4894              LDR      r0,|L12.8656|
001f7e  f7fffffe          BL       cpu_sta
001f82  6c20              LDR      r0,[r4,#0x40]         ;280  ; cpu_clockticks
001f84  1d40              ADDS     r0,r0,#5              ;280
001f86  f7feba7b          B        |L12.1152|
001f8a  78e0              LDRB     r0,[r4,#3]            ;280  ; X
001f8c  71a0              STRB     r0,[r4,#6]            ;280
001f8e  6c20              LDR      r0,[r4,#0x40]         ;280  ; cpu_clockticks
001f90  1c80              ADDS     r0,r0,#2              ;280
001f92  f7feba75          B        |L12.1152|
001f96  488f              LDR      r0,|L12.8660|
001f98  f7fffffe          BL       cpu_stz
001f9c  6c20              LDR      r0,[r4,#0x40]         ;280  ; cpu_clockticks
001f9e  1d00              ADDS     r0,r0,#4              ;280
001fa0  f7feba6e          B        |L12.1152|
001fa4  488c              LDR      r0,|L12.8664|
001fa6  f7fffffe          BL       cpu_sta
001faa  6c20              LDR      r0,[r4,#0x40]         ;280  ; cpu_clockticks
001fac  1d40              ADDS     r0,r0,#5              ;280
001fae  f7feba67          B        |L12.1152|
001fb2  4889              LDR      r0,|L12.8664|
001fb4  f7fffffe          BL       cpu_stz
001fb8  6c20              LDR      r0,[r4,#0x40]         ;280  ; cpu_clockticks
001fba  1d40              ADDS     r0,r0,#5              ;280
001fbc  f7feba60          B        |L12.1152|
001fc0  f7fffffe          BL       cpu_immediate
001fc4  f7fffffe          BL       cpu_getmemory
001fc8  f01000ff          ANDS     r0,r0,#0xff           ;280
001fcc  7120              STRB     r0,[r4,#4]            ;280
001fce  7961              LDRB     r1,[r4,#5]            ;280  ; P
001fd0  bf0c              ITE      EQ                    ;280
001fd2  f0410102          ORREQ    r1,r1,#2              ;280
001fd6  f0210102          BICNE    r1,r1,#2              ;280
001fda  7161              STRB     r1,[r4,#5]            ;280
001fdc  f0100f80          TST      r0,#0x80              ;280
001fe0  f47eaea5          BNE      |L12.3374|
                  |L12.8164|
001fe4  fa5ff081          UXTB.W   r0,r1                 ;280
                  |L12.8168|
001fe8  f0200080          BIC      r0,r0,#0x80           ;280
001fec  f7feba78          B        |L12.1248|
001ff0  487a              LDR      r0,|L12.8668|
001ff2  f7fffffe          BL       cpu_lda
001ff6  6c20              LDR      r0,[r4,#0x40]         ;280  ; cpu_clockticks
001ff8  1d80              ADDS     r0,r0,#6              ;280
001ffa  f7feba41          B        |L12.1152|
001ffe  bf00              NOP                            ;280
002000  f7fffffe          BL       cpu_immediate
002004  f7fffffe          BL       cpu_getmemory
002008  f01000ff          ANDS     r0,r0,#0xff           ;280
00200c  70e0              STRB     r0,[r4,#3]            ;280
00200e  7961              LDRB     r1,[r4,#5]            ;280  ; P
002010  bf0c              ITE      EQ                    ;280
002012  f0410102          ORREQ    r1,r1,#2              ;280
002016  f0210102          BICNE    r1,r1,#2              ;280
00201a  7161              STRB     r1,[r4,#5]            ;280
00201c  f0100f80          TST      r0,#0x80              ;280
002020  bf04              ITT      EQ                    ;280
002022  b2c8              UXTBEQ   r0,r1                 ;280
002024  f0200080          BICEQ    r0,r0,#0x80           ;280
002028  f43eaa5a          BEQ      |L12.1248|
                  |L12.8236|
00202c  b2c8              UXTB     r0,r1                 ;280
00202e  f0400080          ORR      r0,r0,#0x80           ;280
002032  f7feba55          B        |L12.1248|
002036  89e0              LDRH     r0,[r4,#0xe]          ;280  ; PC
002038  4964              LDR      r1,|L12.8652|
00203a  1c40              ADDS     r0,r0,#1              ;280
00203c  81e0              STRH     r0,[r4,#0xe]          ;280
00203e  7a20              LDRB     r0,[r4,#8]            ;280  ; operand
002040  5c08              LDRB     r0,[r1,r0]            ;280
002042  7120              STRB     r0,[r4,#4]            ;280
002044  7961              LDRB     r1,[r4,#5]            ;280  ; P
002046  2800              CMP      r0,#0                 ;280
002048  bf14              ITE      NE                    ;280
00204a  f00101fd          ANDNE    r1,r1,#0xfd           ;280
00204e  f0410102          ORREQ    r1,r1,#2              ;280
002052  7161              STRB     r1,[r4,#5]            ;280
002054  f0100f80          TST      r0,#0x80              ;280
002058  f43eae6e          BEQ      |L12.3384|
00205c  f7febe67          B        |L12.3374|
002060  89e0              LDRH     r0,[r4,#0xe]          ;280  ; PC
002062  495a              LDR      r1,|L12.8652|
002064  1c40              ADDS     r0,r0,#1              ;280
002066  81e0              STRH     r0,[r4,#0xe]          ;280
002068  7a20              LDRB     r0,[r4,#8]            ;280  ; operand
00206a  5c08              LDRB     r0,[r1,r0]            ;280
00206c  70a0              STRB     r0,[r4,#2]            ;280
00206e  7961              LDRB     r1,[r4,#5]            ;280  ; P
002070  2800              CMP      r0,#0                 ;280
002072  bf14              ITE      NE                    ;280
002074  f00101fd          ANDNE    r1,r1,#0xfd           ;280
002078  f0410102          ORREQ    r1,r1,#2              ;280
00207c  7161              STRB     r1,[r4,#5]            ;280
00207e  f0100f80          TST      r0,#0x80              ;280
002082  f43eae59          BEQ      |L12.3384|
002086  f7febe52          B        |L12.3374|
00208a  89e0              LDRH     r0,[r4,#0xe]          ;280  ; PC
00208c  494f              LDR      r1,|L12.8652|
00208e  1c40              ADDS     r0,r0,#1              ;280
002090  81e0              STRH     r0,[r4,#0xe]          ;280
002092  7a20              LDRB     r0,[r4,#8]            ;280  ; operand
002094  5c08              LDRB     r0,[r1,r0]            ;280
002096  70e0              STRB     r0,[r4,#3]            ;280
002098  7961              LDRB     r1,[r4,#5]            ;280  ; P
00209a  2800              CMP      r0,#0                 ;280
00209c  bf14              ITE      NE                    ;280
00209e  f00101fd          ANDNE    r1,r1,#0xfd           ;280
0020a2  f0410102          ORREQ    r1,r1,#2              ;280
0020a6  7161              STRB     r1,[r4,#5]            ;280
0020a8  f0100f80          TST      r0,#0x80              ;280
0020ac  d1be              BNE      |L12.8236|
0020ae  f7febe43          B        |L12.3384|
0020b2  78a0              LDRB     r0,[r4,#2]            ;280  ; A
0020b4  7120              STRB     r0,[r4,#4]            ;280
0020b6  7961              LDRB     r1,[r4,#5]            ;280  ; P
0020b8  2800              CMP      r0,#0                 ;280
0020ba  bf0c              ITE      EQ                    ;280
0020bc  f0410102          ORREQ    r1,r1,#2              ;280
0020c0  f0210102          BICNE    r1,r1,#2              ;280
0020c4  7161              STRB     r1,[r4,#5]            ;280
0020c6  f0100f80          TST      r0,#0x80              ;280
0020ca  f47eaa52          BNE      |L12.1394|
0020ce  f7ffbb01          B        |L12.5844|
0020d2  4843              LDR      r0,|L12.8672|
0020d4  f7fffffe          BL       cpu_lda
0020d8  6c20              LDR      r0,[r4,#0x40]         ;280  ; cpu_clockticks
0020da  1cc0              ADDS     r0,r0,#3              ;280
0020dc  f7feb9d0          B        |L12.1152|
0020e0  78a0              LDRB     r0,[r4,#2]            ;280  ; A
0020e2  70e0              STRB     r0,[r4,#3]            ;280
0020e4  7961              LDRB     r1,[r4,#5]            ;280  ; P
0020e6  2800              CMP      r0,#0                 ;280
0020e8  bf0c              ITE      EQ                    ;280
0020ea  f0410102          ORREQ    r1,r1,#2              ;280
0020ee  f0210102          BICNE    r1,r1,#2              ;280
0020f2  7161              STRB     r1,[r4,#5]            ;280
0020f4  f0100f80          TST      r0,#0x80              ;280
0020f8  f43faaec          BEQ      |L12.5844|
0020fc  f7feba39          B        |L12.1394|
002100  f7fffffe          BL       cpu_abs
002104  f7fffffe          BL       cpu_getmemory
002108  f01000ff          ANDS     r0,r0,#0xff           ;280
00210c  7120              STRB     r0,[r4,#4]            ;280
00210e  7961              LDRB     r1,[r4,#5]            ;280  ; P
002110  bf0c              ITE      EQ                    ;280
002112  f0410102          ORREQ    r1,r1,#2              ;280
002116  f0210102          BICNE    r1,r1,#2              ;280
00211a  7161              STRB     r1,[r4,#5]            ;280
00211c  f0100f80          TST      r0,#0x80              ;280
002120  d119              BNE      |L12.8534|
002122  e01d              B        |L12.8544|
002124  482b              LDR      r0,|L12.8660|
002126  f7fffffe          BL       cpu_lda
00212a  6c20              LDR      r0,[r4,#0x40]         ;280  ; cpu_clockticks
00212c  1d00              ADDS     r0,r0,#4              ;280
00212e  f7feb9a7          B        |L12.1152|
002132  bf00              NOP                            ;280
002134  f7fffffe          BL       cpu_abs
002138  f7fffffe          BL       cpu_getmemory
00213c  f01000ff          ANDS     r0,r0,#0xff           ;280
002140  70e0              STRB     r0,[r4,#3]            ;280
002142  7961              LDRB     r1,[r4,#5]            ;280  ; P
002144  bf0c              ITE      EQ                    ;280
002146  f0410102          ORREQ    r1,r1,#2              ;280
00214a  f0210102          BICNE    r1,r1,#2              ;280
00214e  7161              STRB     r1,[r4,#5]            ;280
002150  f0100f80          TST      r0,#0x80              ;280
002154  d004              BEQ      |L12.8544|
                  |L12.8534|
002156  b2c8              UXTB     r0,r1                 ;280
002158  f0400080          ORR      r0,r0,#0x80           ;280
00215c  f7febd76          B        |L12.3148|
                  |L12.8544|
002160  f001007f          AND      r0,r1,#0x7f           ;280
002164  f7febd72          B        |L12.3148|
002168  7960              LDRB     r0,[r4,#5]            ;280  ; P
00216a  f0100f01          TST      r0,#1                 ;280
00216e  f43eae72          BEQ      |L12.3670|
002172  f7febe64          B        |L12.3646|
002176  481b              LDR      r0,|L12.8676|
002178  f7fffffe          BL       cpu_lda
00217c  6c20              LDR      r0,[r4,#0x40]         ;280  ; cpu_clockticks
00217e  1d40              ADDS     r0,r0,#5              ;280
002180  f7feb97e          B        |L12.1152|
002184  89e0              LDRH     r0,[r4,#0xe]          ;280  ; PC
002186  4911              LDR      r1,|L12.8652|
002188  1c40              ADDS     r0,r0,#1              ;280
00218a  81e0              STRH     r0,[r4,#0xe]          ;280
00218c  7a20              LDRB     r0,[r4,#8]            ;280  ; operand
00218e  5c08              LDRB     r0,[r1,r0]            ;280
002190  f7fffffe          BL       cpu_getmemory
002194  f01000ff          ANDS     r0,r0,#0xff           ;280
002198  70a0              STRB     r0,[r4,#2]            ;280
00219a  7961              LDRB     r1,[r4,#5]            ;280  ; P
00219c  bf14              ITE      NE                    ;280
00219e  f00101fd          ANDNE    r1,r1,#0xfd           ;280
0021a2  f0410102          ORREQ    r1,r1,#2              ;280
0021a6  7161              STRB     r1,[r4,#5]            ;280
0021a8  f0100f80          TST      r0,#0x80              ;280
0021ac  f43eadc4          BEQ      |L12.3384|
0021b0  f7febdbd          B        |L12.3374|
                  |L12.8628|
                          DCD      PPU_Reg
                  |L12.8632|
                          DCD      ||.data||+0x9
                  |L12.8636|
                          DCD      0x40021000
                  |L12.8640|
                          DCD      joys
                  |L12.8644|
                          DCD      ||.data||+0xb
                  |L12.8648|
                          DCD      Spr_Mem
                  |L12.8652|
                          DCD      ||.bss||
                  |L12.8656|
                          DCD      cpu_absy
                  |L12.8660|
                          DCD      cpu_abs
                  |L12.8664|
                          DCD      cpu_absx
                  |L12.8668|
                          DCD      cpu_indx
                  |L12.8672|
                          DCD      cpu_immediate
                  |L12.8676|
                          DCD      cpu_indy
0021e8  89e0              LDRH     r0,[r4,#0xe]          ;280  ; PC
0021ea  1c40              ADDS     r0,r0,#1              ;280
0021ec  81e0              STRH     r0,[r4,#0xe]          ;280
0021ee  7a20              LDRB     r0,[r4,#8]            ;280  ; operand
0021f0  78e1              LDRB     r1,[r4,#3]            ;280  ; X
0021f2  4408              ADD      r0,r0,r1              ;280
0021f4  49f7              LDR      r1,|L12.9684|
0021f6  b2c0              UXTB     r0,r0                 ;280
0021f8  5c08              LDRB     r0,[r1,r0]            ;280
0021fa  7120              STRB     r0,[r4,#4]            ;280
0021fc  7961              LDRB     r1,[r4,#5]            ;280  ; P
0021fe  2800              CMP      r0,#0                 ;280
002200  bf14              ITE      NE                    ;280
002202  f00101fd          ANDNE    r1,r1,#0xfd           ;280
002206  f0410102          ORREQ    r1,r1,#2              ;280
00220a  7161              STRB     r1,[r4,#5]            ;280
00220c  f0100f80          TST      r0,#0x80              ;280
002210  d1a1              BNE      |L12.8534|
002212  f7febb89          B        |L12.2344|
002216  89e0              LDRH     r0,[r4,#0xe]          ;280  ; PC
002218  1c40              ADDS     r0,r0,#1              ;280
00221a  81e0              STRH     r0,[r4,#0xe]          ;280
00221c  7a20              LDRB     r0,[r4,#8]            ;280  ; operand
00221e  78e1              LDRB     r1,[r4,#3]            ;280  ; X
002220  4408              ADD      r0,r0,r1              ;280
002222  49ec              LDR      r1,|L12.9684|
002224  b2c0              UXTB     r0,r0                 ;280
002226  5c08              LDRB     r0,[r1,r0]            ;280
002228  70a0              STRB     r0,[r4,#2]            ;280
00222a  7961              LDRB     r1,[r4,#5]            ;280  ; P
00222c  2800              CMP      r0,#0                 ;280
00222e  bf14              ITE      NE                    ;280
002230  f00101fd          ANDNE    r1,r1,#0xfd           ;280
002234  f0410102          ORREQ    r1,r1,#2              ;280
002238  7161              STRB     r1,[r4,#5]            ;280
00223a  f0100f80          TST      r0,#0x80              ;280
00223e  d18a              BNE      |L12.8534|
002240  f7febb72          B        |L12.2344|
002244  89e0              LDRH     r0,[r4,#0xe]          ;280  ; PC
002246  1c40              ADDS     r0,r0,#1              ;280
002248  81e0              STRH     r0,[r4,#0xe]          ;280
00224a  7a20              LDRB     r0,[r4,#8]            ;280  ; operand
00224c  7921              LDRB     r1,[r4,#4]            ;280  ; Y
00224e  4408              ADD      r0,r0,r1              ;280
002250  49e0              LDR      r1,|L12.9684|
002252  b2c0              UXTB     r0,r0                 ;280
002254  5c08              LDRB     r0,[r1,r0]            ;280
002256  70e0              STRB     r0,[r4,#3]            ;280
002258  7961              LDRB     r1,[r4,#5]            ;280  ; P
00225a  2800              CMP      r0,#0                 ;280
00225c  bf14              ITE      NE                    ;280
00225e  f00101fd          ANDNE    r1,r1,#0xfd           ;280
002262  f0410102          ORREQ    r1,r1,#2              ;280
002266  7161              STRB     r1,[r4,#5]            ;280
002268  f0100f80          TST      r0,#0x80              ;280
00226c  f43eab5c          BEQ      |L12.2344|
002270  f7febb55          B        |L12.2334|
002274  7960              LDRB     r0,[r4,#5]            ;280  ; P
002276  f7ffba51          B        |L12.5916|
00227a  48d7              LDR      r0,|L12.9688|
00227c  f7fffffe          BL       cpu_lda
002280  6c20              LDR      r0,[r4,#0x40]         ;280  ; cpu_clockticks
002282  1d00              ADDS     r0,r0,#4              ;280
002284  f7feb8fc          B        |L12.1152|
002288  79a0              LDRB     r0,[r4,#6]            ;280  ; S
00228a  70e0              STRB     r0,[r4,#3]            ;280
00228c  7961              LDRB     r1,[r4,#5]            ;280  ; P
00228e  2800              CMP      r0,#0                 ;280
002290  bf0c              ITE      EQ                    ;280
002292  f0410102          ORREQ    r1,r1,#2              ;280
002296  f0210102          BICNE    r1,r1,#2              ;280
00229a  7161              STRB     r1,[r4,#5]            ;280
00229c  f0100f80          TST      r0,#0x80              ;280
0022a0  f43faa18          BEQ      |L12.5844|
0022a4  f7feb965          B        |L12.1394|
0022a8  f7fffffe          BL       cpu_absx
0022ac  f7fffffe          BL       cpu_getmemory
0022b0  f01000ff          ANDS     r0,r0,#0xff           ;280
0022b4  7120              STRB     r0,[r4,#4]            ;280
0022b6  7961              LDRB     r1,[r4,#5]            ;280  ; P
0022b8  bf0c              ITE      EQ                    ;280
0022ba  f0410102          ORREQ    r1,r1,#2              ;280
0022be  f0210102          BICNE    r1,r1,#2              ;280
0022c2  7161              STRB     r1,[r4,#5]            ;280
0022c4  f0100f80          TST      r0,#0x80              ;280
0022c8  f43fa85b          BEQ      |L12.4994|
0022cc  f7febb27          B        |L12.2334|
0022d0  48c2              LDR      r0,|L12.9692|
0022d2  f7fffffe          BL       cpu_lda
0022d6  f7febac8          B        |L12.2154|
0022da  bf00              NOP                            ;280
0022dc  f7fffffe          BL       cpu_absy
0022e0  f7fffffe          BL       cpu_getmemory
0022e4  f01000ff          ANDS     r0,r0,#0xff           ;280
0022e8  70e0              STRB     r0,[r4,#3]            ;280
0022ea  7961              LDRB     r1,[r4,#5]            ;280  ; P
0022ec  bf0c              ITE      EQ                    ;280
0022ee  f0410102          ORREQ    r1,r1,#2              ;280
0022f2  f0210102          BICNE    r1,r1,#2              ;280
0022f6  7161              STRB     r1,[r4,#5]            ;280
0022f8  f0100f80          TST      r0,#0x80              ;280
0022fc  f43fa841          BEQ      |L12.4994|
002300  f7febb0d          B        |L12.2334|
002304  f7fffffe          BL       cpu_immediate
002308  f7fffffe          BL       cpu_getmemory
00230c  7922              LDRB     r2,[r4,#4]            ;280  ; Y
00230e  b2c0              UXTB     r0,r0                 ;280
002310  1a11              SUBS     r1,r2,r0              ;280
002312  4282              CMP      r2,r0                 ;280
002314  7960              LDRB     r0,[r4,#5]            ;280  ; P
002316  b289              UXTH     r1,r1                 ;280
002318  bf2c              ITE      CS                    ;280
00231a  f0400001          ORRCS    r0,r0,#1              ;280
00231e  f0200001          BICCC    r0,r0,#1              ;280
002322  7160              STRB     r0,[r4,#5]            ;280
002324  f0110fff          TST      r1,#0xff              ;280
002328  b2c0              UXTB     r0,r0                 ;280
00232a  bf0c              ITE      EQ                    ;280
00232c  f0400002          ORREQ    r0,r0,#2              ;280
002330  f0200002          BICNE    r0,r0,#2              ;280
002334  7160              STRB     r0,[r4,#5]            ;280
002336  f0110f80          TST      r1,#0x80              ;280
00233a  b2c0              UXTB     r0,r0                 ;280
00233c  f47eacf8          BNE      |L12.3376|
002340  e652              B        |L12.8168|
002342  48a7              LDR      r0,|L12.9696|
002344  f7fffffe          BL       cpu_cmp
002348  6c20              LDR      r0,[r4,#0x40]         ;280  ; cpu_clockticks
00234a  1d80              ADDS     r0,r0,#6              ;280
00234c  f7feb898          B        |L12.1152|
002350  89e0              LDRH     r0,[r4,#0xe]          ;280  ; PC
002352  49a0              LDR      r1,|L12.9684|
002354  1c40              ADDS     r0,r0,#1              ;280
002356  81e0              STRH     r0,[r4,#0xe]          ;280
002358  7a20              LDRB     r0,[r4,#8]            ;280  ; operand
00235a  5c08              LDRB     r0,[r1,r0]            ;280
00235c  7921              LDRB     r1,[r4,#4]            ;280  ; Y
00235e  1a08              SUBS     r0,r1,r0              ;280
002360  f5007080          ADD      r0,r0,#0x100          ;280
002364  7961              LDRB     r1,[r4,#5]            ;280  ; P
002366  28ff              CMP      r0,#0xff              ;280
002368  bfcc              ITE      GT                    ;280
00236a  f0410101          ORRGT    r1,r1,#1              ;280
00236e  f00101fe          ANDLE    r1,r1,#0xfe           ;280
002372  7161              STRB     r1,[r4,#5]            ;280
002374  f01000ff          ANDS     r0,r0,#0xff           ;280
002378  b2c9              UXTB     r1,r1                 ;280
00237a  bf14              ITE      NE                    ;280
00237c  f00101fd          ANDNE    r1,r1,#0xfd           ;280
002380  f0410102          ORREQ    r1,r1,#2              ;280
002384  7161              STRB     r1,[r4,#5]            ;280
002386  f0100f80          TST      r0,#0x80              ;280
00238a  f43eacd5          BEQ      |L12.3384|
00238e  f7febcce          B        |L12.3374|
002392  89e0              LDRH     r0,[r4,#0xe]          ;280  ; PC
002394  498f              LDR      r1,|L12.9684|
002396  1c40              ADDS     r0,r0,#1              ;280
002398  81e0              STRH     r0,[r4,#0xe]          ;280
00239a  7a20              LDRB     r0,[r4,#8]            ;280  ; operand
00239c  5c08              LDRB     r0,[r1,r0]            ;280
00239e  78a1              LDRB     r1,[r4,#2]            ;280  ; A
0023a0  1a08              SUBS     r0,r1,r0              ;280
0023a2  f5007080          ADD      r0,r0,#0x100          ;280
0023a6  7961              LDRB     r1,[r4,#5]            ;280  ; P
0023a8  28ff              CMP      r0,#0xff              ;280
0023aa  bfcc              ITE      GT                    ;280
0023ac  f0410101          ORRGT    r1,r1,#1              ;280
0023b0  f00101fe          ANDLE    r1,r1,#0xfe           ;280
0023b4  7161              STRB     r1,[r4,#5]            ;280
0023b6  f01000ff          ANDS     r0,r0,#0xff           ;280
0023ba  b2c9              UXTB     r1,r1                 ;280
0023bc  bf14              ITE      NE                    ;280
0023be  f00101fd          ANDNE    r1,r1,#0xfd           ;280
0023c2  f0410102          ORREQ    r1,r1,#2              ;280
0023c6  7161              STRB     r1,[r4,#5]            ;280
0023c8  f0100f80          TST      r0,#0x80              ;280
0023cc  f43eacb4          BEQ      |L12.3384|
0023d0  f7febcad          B        |L12.3374|
0023d4  89e0              LDRH     r0,[r4,#0xe]          ;280  ; PC
0023d6  4a7f              LDR      r2,|L12.9684|
0023d8  1c40              ADDS     r0,r0,#1              ;280
0023da  81e0              STRH     r0,[r4,#0xe]          ;280
0023dc  7a20              LDRB     r0,[r4,#8]            ;280  ; operand
0023de  5c11              LDRB     r1,[r2,r0]            ;280
0023e0  1e49              SUBS     r1,r1,#1              ;280
0023e2  f01101ff          ANDS     r1,r1,#0xff           ;280
0023e6  5411              STRB     r1,[r2,r0]            ;280
0023e8  7960              LDRB     r0,[r4,#5]            ;280  ; P
0023ea  bf14              ITE      NE                    ;280
0023ec  f00000fd          ANDNE    r0,r0,#0xfd           ;280
0023f0  f0400002          ORREQ    r0,r0,#2              ;280
0023f4  7160              STRB     r0,[r4,#5]            ;280
0023f6  f0110f80          TST      r1,#0x80              ;280
0023fa  f43eae49          BEQ      |L12.4240|
0023fe  f7febe33          B        |L12.4200|
002402  7920              LDRB     r0,[r4,#4]            ;280  ; Y
002404  1c40              ADDS     r0,r0,#1              ;280
002406  f01000ff          ANDS     r0,r0,#0xff           ;280
00240a  7120              STRB     r0,[r4,#4]            ;280
00240c  7961              LDRB     r1,[r4,#5]            ;280  ; P
00240e  bf0c              ITE      EQ                    ;280
002410  f0410102          ORREQ    r1,r1,#2              ;280
002414  f0210102          BICNE    r1,r1,#2              ;280
002418  7161              STRB     r1,[r4,#5]            ;280
00241a  f0100f80          TST      r0,#0x80              ;280
00241e  f43fa959          BEQ      |L12.5844|
002422  f7feb8a6          B        |L12.1394|
002426  486f              LDR      r0,|L12.9700|
002428  f7fffffe          BL       cpu_cmp
00242c  6c20              LDR      r0,[r4,#0x40]         ;280  ; cpu_clockticks
00242e  1cc0              ADDS     r0,r0,#3              ;280
002430  f7feb826          B        |L12.1152|
002434  78e0              LDRB     r0,[r4,#3]            ;280  ; X
002436  1e40              SUBS     r0,r0,#1              ;280
002438  f01000ff          ANDS     r0,r0,#0xff           ;280
00243c  70e0              STRB     r0,[r4,#3]            ;280
00243e  7961              LDRB     r1,[r4,#5]            ;280  ; P
002440  bf0c              ITE      EQ                    ;280
002442  f0410102          ORREQ    r1,r1,#2              ;280
002446  f0210102          BICNE    r1,r1,#2              ;280
00244a  7161              STRB     r1,[r4,#5]            ;280
00244c  f0100f80          TST      r0,#0x80              ;280
002450  f43fa940          BEQ      |L12.5844|
002454  f7feb88d          B        |L12.1394|
002458  f7fffffe          BL       cpu_abs
00245c  f7fffffe          BL       cpu_getmemory
002460  7922              LDRB     r2,[r4,#4]            ;280  ; Y
002462  b2c1              UXTB     r1,r0                 ;280
002464  1a50              SUBS     r0,r2,r1              ;280
002466  428a              CMP      r2,r1                 ;280
002468  7961              LDRB     r1,[r4,#5]            ;280  ; P
00246a  b280              UXTH     r0,r0                 ;280
00246c  bf2c              ITE      CS                    ;280
00246e  f0410101          ORRCS    r1,r1,#1              ;280
002472  f0210101          BICCC    r1,r1,#1              ;280
002476  7161              STRB     r1,[r4,#5]            ;280
002478  f0100fff          TST      r0,#0xff              ;280
00247c  b2c9              UXTB     r1,r1                 ;280
00247e  bf0c              ITE      EQ                    ;280
002480  f0410102          ORREQ    r1,r1,#2              ;280
002484  f0210102          BICNE    r1,r1,#2              ;280
002488  7161              STRB     r1,[r4,#5]            ;280
00248a  f0100f80          TST      r0,#0x80              ;280
00248e  f43eaf78          BEQ      |L12.4994|
002492  f7feba44          B        |L12.2334|
002496  4854              LDR      r0,|L12.9704|
002498  f7fffffe          BL       cpu_cmp
00249c  f7feb9e5          B        |L12.2154|
0024a0  4851              LDR      r0,|L12.9704|
0024a2  f7fffffe          BL       cpu_dec
0024a6  6c20              LDR      r0,[r4,#0x40]         ;280  ; cpu_clockticks
0024a8  1d80              ADDS     r0,r0,#6              ;280
0024aa  f7fdbfe9          B        |L12.1152|
0024ae  7960              LDRB     r0,[r4,#5]            ;280  ; P
0024b0  f0100f02          TST      r0,#2                 ;280
0024b4  f47eaccf          BNE      |L12.3670|
0024b8  f7febcc1          B        |L12.3646|
0024bc  484b              LDR      r0,|L12.9708|
0024be  f7fffffe          BL       cpu_cmp
0024c2  6c20              LDR      r0,[r4,#0x40]         ;280  ; cpu_clockticks
0024c4  1d40              ADDS     r0,r0,#5              ;280
0024c6  f7fdbfdb          B        |L12.1152|
0024ca  89e0              LDRH     r0,[r4,#0xe]          ;280  ; PC
0024cc  4941              LDR      r1,|L12.9684|
0024ce  1c40              ADDS     r0,r0,#1              ;280
0024d0  81e0              STRH     r0,[r4,#0xe]          ;280
0024d2  7a20              LDRB     r0,[r4,#8]            ;280  ; operand
0024d4  5c08              LDRB     r0,[r1,r0]            ;280
0024d6  f7fffffe          BL       cpu_getmemory
0024da  78a1              LDRB     r1,[r4,#2]            ;280  ; A
0024dc  b2c0              UXTB     r0,r0                 ;280
0024de  1a08              SUBS     r0,r1,r0              ;280
0024e0  f5007080          ADD      r0,r0,#0x100          ;280
0024e4  7961              LDRB     r1,[r4,#5]            ;280  ; P
0024e6  28ff              CMP      r0,#0xff              ;280
0024e8  bfcc              ITE      GT                    ;280
0024ea  f0410101          ORRGT    r1,r1,#1              ;280
0024ee  f00101fe          ANDLE    r1,r1,#0xfe           ;280
0024f2  7161              STRB     r1,[r4,#5]            ;280
0024f4  f01000ff          ANDS     r0,r0,#0xff           ;280
0024f8  b2c9              UXTB     r1,r1                 ;280
0024fa  bf14              ITE      NE                    ;280
0024fc  f00101fd          ANDNE    r1,r1,#0xfd           ;280
002500  f0410102          ORREQ    r1,r1,#2              ;280
002504  7161              STRB     r1,[r4,#5]            ;280
002506  f0100f80          TST      r0,#0x80              ;280
00250a  f43eac15          BEQ      |L12.3384|
00250e  f7febc0e          B        |L12.3374|
002512  89e0              LDRH     r0,[r4,#0xe]          ;280  ; PC
002514  1c40              ADDS     r0,r0,#1              ;280
002516  81e0              STRH     r0,[r4,#0xe]          ;280
002518  7a20              LDRB     r0,[r4,#8]            ;280  ; operand
00251a  78e1              LDRB     r1,[r4,#3]            ;280  ; X
00251c  4408              ADD      r0,r0,r1              ;280
00251e  492d              LDR      r1,|L12.9684|
002520  b2c0              UXTB     r0,r0                 ;280
002522  5c08              LDRB     r0,[r1,r0]            ;280
002524  78a1              LDRB     r1,[r4,#2]            ;280  ; A
002526  1a08              SUBS     r0,r1,r0              ;280
002528  f5007080          ADD      r0,r0,#0x100          ;280
00252c  7961              LDRB     r1,[r4,#5]            ;280  ; P
00252e  28ff              CMP      r0,#0xff              ;280
002530  bfcc              ITE      GT                    ;280
002532  f0410101          ORRGT    r1,r1,#1              ;280
002536  f00101fe          ANDLE    r1,r1,#0xfe           ;280
00253a  7161              STRB     r1,[r4,#5]            ;280
00253c  f01000ff          ANDS     r0,r0,#0xff           ;280
002540  b2c9              UXTB     r1,r1                 ;280
002542  bf14              ITE      NE                    ;280
002544  f00101fd          ANDNE    r1,r1,#0xfd           ;280
002548  f0410102          ORREQ    r1,r1,#2              ;280
00254c  7161              STRB     r1,[r4,#5]            ;280
00254e  f0100f80          TST      r0,#0x80              ;280
002552  f43ea9e9          BEQ      |L12.2344|
002556  f7feb9e2          B        |L12.2334|
00255a  89e0              LDRH     r0,[r4,#0xe]          ;280  ; PC
00255c  4a1d              LDR      r2,|L12.9684|
00255e  1c40              ADDS     r0,r0,#1              ;280
002560  81e0              STRH     r0,[r4,#0xe]          ;280
002562  7a20              LDRB     r0,[r4,#8]            ;280  ; operand
002564  78e1              LDRB     r1,[r4,#3]            ;280  ; X
002566  4408              ADD      r0,r0,r1              ;280
002568  b2c1              UXTB     r1,r0                 ;280
00256a  5c50              LDRB     r0,[r2,r1]            ;280
00256c  1e40              SUBS     r0,r0,#1              ;280
00256e  f01000ff          ANDS     r0,r0,#0xff           ;280
002572  5450              STRB     r0,[r2,r1]            ;280
002574  7961              LDRB     r1,[r4,#5]            ;280  ; P
002576  bf14              ITE      NE                    ;280
002578  f00101fd          ANDNE    r1,r1,#0xfd           ;280
00257c  f0410102          ORREQ    r1,r1,#2              ;280
002580  7161              STRB     r1,[r4,#5]            ;280
002582  f0100f80          TST      r0,#0x80              ;280
002586  f43eacdb          BEQ      |L12.3904|
00258a  f7febcd7          B        |L12.3900|
00258e  7960              LDRB     r0,[r4,#5]            ;280  ; P
002590  f0200008          BIC      r0,r0,#8              ;280
002594  7160              STRB     r0,[r4,#5]            ;280
002596  6c20              LDR      r0,[r4,#0x40]         ;280  ; cpu_clockticks
002598  1c80              ADDS     r0,r0,#2              ;280
00259a  f7fdbf71          B        |L12.1152|
00259e  480e              LDR      r0,|L12.9688|
0025a0  f7fffffe          BL       cpu_cmp
0025a4  6c20              LDR      r0,[r4,#0x40]         ;280  ; cpu_clockticks
0025a6  1d00              ADDS     r0,r0,#4              ;280
0025a8  f7fdbf6a          B        |L12.1152|
0025ac  4a09              LDR      r2,|L12.9684|
0025ae  79a0              LDRB     r0,[r4,#6]            ;280  ; S
0025b0  78e1              LDRB     r1,[r4,#3]            ;280  ; X
0025b2  4402              ADD      r2,r2,r0              ;280
0025b4  1e40              SUBS     r0,r0,#1              ;280
0025b6  f8821100          STRB     r1,[r2,#0x100]        ;280
0025ba  71a0              STRB     r0,[r4,#6]            ;280
0025bc  6c20              LDR      r0,[r4,#0x40]         ;280  ; cpu_clockticks
0025be  1cc0              ADDS     r0,r0,#3              ;280
0025c0  f7fdbf5e          B        |L12.1152|
0025c4  4805              LDR      r0,|L12.9692|
0025c6  f7fffffe          BL       cpu_cmp
0025ca  6c20              LDR      r0,[r4,#0x40]         ;280  ; cpu_clockticks
0025cc  1d00              ADDS     r0,r0,#4              ;280
0025ce  f7fdbf57          B        |L12.1152|
0025d2  0000              DCW      0x0000
                  |L12.9684|
                          DCD      ||.bss||
                  |L12.9688|
                          DCD      cpu_absy
                  |L12.9692|
                          DCD      cpu_absx
                  |L12.9696|
                          DCD      cpu_indx
                  |L12.9700|
                          DCD      cpu_immediate
                  |L12.9704|
                          DCD      cpu_abs
                  |L12.9708|
                          DCD      cpu_indy
0025f0  48f7              LDR      r0,|L12.10704|
0025f2  f7fffffe          BL       cpu_dec
0025f6  6c20              LDR      r0,[r4,#0x40]         ;280  ; cpu_clockticks
0025f8  1dc0              ADDS     r0,r0,#7              ;280
0025fa  f7fdbf41          B        |L12.1152|
0025fe  bf00              NOP                            ;280
002600  f7fffffe          BL       cpu_immediate
002604  f7fffffe          BL       cpu_getmemory
002608  78e2              LDRB     r2,[r4,#3]            ;280  ; X
00260a  b2c1              UXTB     r1,r0                 ;280
00260c  1a50              SUBS     r0,r2,r1              ;280
00260e  428a              CMP      r2,r1                 ;280
002610  7961              LDRB     r1,[r4,#5]            ;280  ; P
002612  b280              UXTH     r0,r0                 ;280
002614  bf2c              ITE      CS                    ;280
002616  f0410101          ORRCS    r1,r1,#1              ;280
00261a  f0210101          BICCC    r1,r1,#1              ;280
00261e  7161              STRB     r1,[r4,#5]            ;280
002620  f0100fff          TST      r0,#0xff              ;280
002624  b2c9              UXTB     r1,r1                 ;280
002626  bf0c              ITE      EQ                    ;280
002628  f0410102          ORREQ    r1,r1,#2              ;280
00262c  f0210102          BICNE    r1,r1,#2              ;280
002630  7161              STRB     r1,[r4,#5]            ;280
002632  f0100f80          TST      r0,#0x80              ;280
002636  f43facd5          BEQ      |L12.8164|
00263a  f7febb78          B        |L12.3374|
00263e  48e5              LDR      r0,|L12.10708|
002640  f7fffffe          BL       cpu_sbc
002644  6c20              LDR      r0,[r4,#0x40]         ;280  ; cpu_clockticks
002646  1d80              ADDS     r0,r0,#6              ;280
002648  f7fdbf1a          B        |L12.1152|
00264c  89e0              LDRH     r0,[r4,#0xe]          ;280  ; PC
00264e  49e2              LDR      r1,|L12.10712|
002650  1c40              ADDS     r0,r0,#1              ;280
002652  81e0              STRH     r0,[r4,#0xe]          ;280
002654  7a20              LDRB     r0,[r4,#8]            ;280  ; operand
002656  5c08              LDRB     r0,[r1,r0]            ;280
002658  78e1              LDRB     r1,[r4,#3]            ;280  ; X
00265a  1a08              SUBS     r0,r1,r0              ;280
00265c  f5007080          ADD      r0,r0,#0x100          ;280
002660  7961              LDRB     r1,[r4,#5]            ;280  ; P
002662  28ff              CMP      r0,#0xff              ;280
002664  bfcc              ITE      GT                    ;280
002666  f0410101          ORRGT    r1,r1,#1              ;280
00266a  f00101fe          ANDLE    r1,r1,#0xfe           ;280
00266e  7161              STRB     r1,[r4,#5]            ;280
002670  f01000ff          ANDS     r0,r0,#0xff           ;280
002674  b2c9              UXTB     r1,r1                 ;280
002676  bf14              ITE      NE                    ;280
002678  f00101fd          ANDNE    r1,r1,#0xfd           ;280
00267c  f0410102          ORREQ    r1,r1,#2              ;280
002680  7161              STRB     r1,[r4,#5]            ;280
002682  f0100f80          TST      r0,#0x80              ;280
002686  f43eab57          BEQ      |L12.3384|
00268a  f7febb50          B        |L12.3374|
00268e  89e0              LDRH     r0,[r4,#0xe]          ;280  ; PC
002690  49d1              LDR      r1,|L12.10712|
002692  1c40              ADDS     r0,r0,#1              ;280
002694  81e0              STRH     r0,[r4,#0xe]          ;280
002696  7a20              LDRB     r0,[r4,#8]            ;280  ; operand
002698  78a3              LDRB     r3,[r4,#2]            ;280  ; A
00269a  5c08              LDRB     r0,[r1,r0]            ;280
00269c  7961              LDRB     r1,[r4,#5]            ;280  ; P
00269e  f08002ff          EOR      r2,r0,#0xff           ;280
0026a2  f0010001          AND      r0,r1,#1              ;280
0026a6  441a              ADD      r2,r2,r3              ;280
0026a8  eb021300          ADD      r3,r2,r0,LSL #4       ;280
0026ac  3380              ADDS     r3,r3,#0x80           ;280
0026ae  f5b37f80          CMP      r3,#0x100             ;280
0026b2  bf2c              ITE      CS                    ;280
0026b4  f0410140          ORRCS    r1,r1,#0x40           ;280
0026b8  f00101bf          ANDCC    r1,r1,#0xbf           ;280
0026bc  7161              STRB     r1,[r4,#5]            ;280
0026be  4410              ADD      r0,r0,r2              ;280
0026c0  28ff              CMP      r0,#0xff              ;280
0026c2  b2c9              UXTB     r1,r1                 ;280
0026c4  bfcc              ITE      GT                    ;280
0026c6  f0410101          ORRGT    r1,r1,#1              ;280
0026ca  f00101fe          ANDLE    r1,r1,#0xfe           ;280
0026ce  7161              STRB     r1,[r4,#5]            ;280
0026d0  b2c0              UXTB     r0,r0                 ;280
0026d2  b2c9              UXTB     r1,r1                 ;280
0026d4  70a0              STRB     r0,[r4,#2]            ;280
0026d6  f0110f08          TST      r1,#8                 ;280
0026da  d016              BEQ      |L12.9994|
0026dc  3866              SUBS     r0,r0,#0x66           ;280
0026de  b2c0              UXTB     r0,r0                 ;280
0026e0  70a0              STRB     r0,[r4,#2]            ;280
0026e2  f00101fe          AND      r1,r1,#0xfe           ;280
0026e6  f000020f          AND      r2,r0,#0xf            ;280
0026ea  7161              STRB     r1,[r4,#5]            ;280
0026ec  2a09              CMP      r2,#9                 ;280
0026ee  bf84              ITT      HI                    ;280
0026f0  1d80              ADDHI    r0,r0,#6              ;280
0026f2  70a0              STRBHI   r0,[r4,#2]            ;280
0026f4  b2c0              UXTB     r0,r0                 ;280
0026f6  f00002f0          AND      r2,r0,#0xf0           ;280
0026fa  2a90              CMP      r2,#0x90              ;280
0026fc  d908              BLS      |L12.10000|
0026fe  3060              ADDS     r0,r0,#0x60           ;280
002700  70a0              STRB     r0,[r4,#2]            ;280
002702  f0410001          ORR      r0,r1,#1              ;280
002706  7160              STRB     r0,[r4,#5]            ;280
002708  e002              B        |L12.10000|
                  |L12.9994|
00270a  6c20              LDR      r0,[r4,#0x40]         ;280  ; cpu_clockticks
00270c  1c40              ADDS     r0,r0,#1              ;280
00270e  6420              STR      r0,[r4,#0x40]         ;280  ; cpu_clockticks
                  |L12.10000|
002710  78a0              LDRB     r0,[r4,#2]            ;280  ; A
002712  7961              LDRB     r1,[r4,#5]            ;280  ; P
002714  2800              CMP      r0,#0                 ;280
002716  bf14              ITE      NE                    ;280
002718  f00101fd          ANDNE    r1,r1,#0xfd           ;280
00271c  f0410102          ORREQ    r1,r1,#2              ;280
002720  7161              STRB     r1,[r4,#5]            ;280
002722  f0100f80          TST      r0,#0x80              ;280
002726  f43eab07          BEQ      |L12.3384|
00272a  f7febb00          B        |L12.3374|
00272e  89e0              LDRH     r0,[r4,#0xe]          ;280  ; PC
002730  4aa9              LDR      r2,|L12.10712|
002732  1c40              ADDS     r0,r0,#1              ;280
002734  81e0              STRH     r0,[r4,#0xe]          ;280
002736  7a20              LDRB     r0,[r4,#8]            ;280  ; operand
002738  5c11              LDRB     r1,[r2,r0]            ;280
00273a  1c49              ADDS     r1,r1,#1              ;280
00273c  f01101ff          ANDS     r1,r1,#0xff           ;280
002740  5411              STRB     r1,[r2,r0]            ;280
002742  7960              LDRB     r0,[r4,#5]            ;280  ; P
002744  bf14              ITE      NE                    ;280
002746  f00000fd          ANDNE    r0,r0,#0xfd           ;280
00274a  f0400002          ORREQ    r0,r0,#2              ;280
00274e  7160              STRB     r0,[r4,#5]            ;280
002750  f0110f80          TST      r1,#0x80              ;280
002754  f43eac9c          BEQ      |L12.4240|
002758  f7febc86          B        |L12.4200|
00275c  78e0              LDRB     r0,[r4,#3]            ;280  ; X
00275e  1c40              ADDS     r0,r0,#1              ;280
002760  f01000ff          ANDS     r0,r0,#0xff           ;280
002764  70e0              STRB     r0,[r4,#3]            ;280
002766  7961              LDRB     r1,[r4,#5]            ;280  ; P
002768  bf0c              ITE      EQ                    ;280
00276a  f0410102          ORREQ    r1,r1,#2              ;280
00276e  f0210102          BICNE    r1,r1,#2              ;280
002772  7161              STRB     r1,[r4,#5]            ;280
002774  f0100f80          TST      r0,#0x80              ;280
002778  f43eafac          BEQ      |L12.5844|
00277c  f7fdbef9          B        |L12.1394|
002780  4896              LDR      r0,|L12.10716|
002782  f7fffffe          BL       cpu_sbc
002786  6c20              LDR      r0,[r4,#0x40]         ;280  ; cpu_clockticks
002788  1cc0              ADDS     r0,r0,#3              ;280
00278a  f7fdbe79          B        |L12.1152|
00278e  bf00              NOP                            ;280
002790  f7fffffe          BL       cpu_abs
002794  f7fffffe          BL       cpu_getmemory
002798  78e2              LDRB     r2,[r4,#3]            ;280  ; X
00279a  b2c0              UXTB     r0,r0                 ;280
00279c  1a11              SUBS     r1,r2,r0              ;280
00279e  4282              CMP      r2,r0                 ;280
0027a0  7960              LDRB     r0,[r4,#5]            ;280  ; P
0027a2  b289              UXTH     r1,r1                 ;280
0027a4  bf2c              ITE      CS                    ;280
0027a6  f0400001          ORRCS    r0,r0,#1              ;280
0027aa  f0200001          BICCC    r0,r0,#1              ;280
0027ae  7160              STRB     r0,[r4,#5]            ;280
0027b0  f0110fff          TST      r1,#0xff              ;280
0027b4  b2c0              UXTB     r0,r0                 ;280
0027b6  bf0c              ITE      EQ                    ;280
0027b8  f0400002          ORREQ    r0,r0,#2              ;280
0027bc  f0200002          BICNE    r0,r0,#2              ;280
0027c0  7160              STRB     r0,[r4,#5]            ;280
0027c2  f0110f80          TST      r1,#0x80              ;280
0027c6  b2c0              UXTB     r0,r0                 ;280
0027c8  f47ea8aa          BNE      |L12.2336|
0027cc  f7febdda          B        |L12.4996|
0027d0  4883              LDR      r0,|L12.10720|
0027d2  f7fffffe          BL       cpu_sbc
0027d6  f7feb848          B        |L12.2154|
0027da  4881              LDR      r0,|L12.10720|
0027dc  f7fffffe          BL       cpu_inc
0027e0  6c20              LDR      r0,[r4,#0x40]         ;280  ; cpu_clockticks
0027e2  1d80              ADDS     r0,r0,#6              ;280
0027e4  f7fdbe4c          B        |L12.1152|
0027e8  7960              LDRB     r0,[r4,#5]            ;280  ; P
0027ea  f0100f02          TST      r0,#2                 ;280
0027ee  f43eab32          BEQ      |L12.3670|
0027f2  f7febb24          B        |L12.3646|
0027f6  487b              LDR      r0,|L12.10724|
0027f8  f7fffffe          BL       cpu_sbc
0027fc  6c20              LDR      r0,[r4,#0x40]         ;280  ; cpu_clockticks
0027fe  1d40              ADDS     r0,r0,#5              ;280
002800  f7fdbe3e          B        |L12.1152|
002804  89e0              LDRH     r0,[r4,#0xe]          ;280  ; PC
002806  4974              LDR      r1,|L12.10712|
002808  1c40              ADDS     r0,r0,#1              ;280
00280a  81e0              STRH     r0,[r4,#0xe]          ;280
00280c  7a20              LDRB     r0,[r4,#8]            ;280  ; operand
00280e  5c08              LDRB     r0,[r1,r0]            ;280
002810  f7fffffe          BL       cpu_getmemory
002814  43c0              MVNS     r0,r0                 ;280
002816  b2c2              UXTB     r2,r0                 ;280
002818  7961              LDRB     r1,[r4,#5]            ;280  ; P
00281a  78a3              LDRB     r3,[r4,#2]            ;280  ; A
00281c  f0010001          AND      r0,r1,#1              ;280
002820  441a              ADD      r2,r2,r3              ;280
002822  eb021300          ADD      r3,r2,r0,LSL #4       ;280
002826  3380              ADDS     r3,r3,#0x80           ;280
002828  f5b37f80          CMP      r3,#0x100             ;280
00282c  bf2c              ITE      CS                    ;280
00282e  f0410140          ORRCS    r1,r1,#0x40           ;280
002832  f00101bf          ANDCC    r1,r1,#0xbf           ;280
002836  7161              STRB     r1,[r4,#5]            ;280
002838  4410              ADD      r0,r0,r2              ;280
00283a  28ff              CMP      r0,#0xff              ;280
00283c  b2c9              UXTB     r1,r1                 ;280
00283e  bfcc              ITE      GT                    ;280
002840  f0410101          ORRGT    r1,r1,#1              ;280
002844  f00101fe          ANDLE    r1,r1,#0xfe           ;280
002848  7161              STRB     r1,[r4,#5]            ;280
00284a  b2c0              UXTB     r0,r0                 ;280
00284c  b2c9              UXTB     r1,r1                 ;280
00284e  70a0              STRB     r0,[r4,#2]            ;280
002850  f0110f08          TST      r1,#8                 ;280
002854  d016              BEQ      |L12.10372|
002856  3866              SUBS     r0,r0,#0x66           ;280
002858  b2c0              UXTB     r0,r0                 ;280
00285a  70a0              STRB     r0,[r4,#2]            ;280
00285c  f00101fe          AND      r1,r1,#0xfe           ;280
002860  f000020f          AND      r2,r0,#0xf            ;280
002864  7161              STRB     r1,[r4,#5]            ;280
002866  2a09              CMP      r2,#9                 ;280
002868  bf84              ITT      HI                    ;280
00286a  1d80              ADDHI    r0,r0,#6              ;280
00286c  70a0              STRBHI   r0,[r4,#2]            ;280
00286e  b2c0              UXTB     r0,r0                 ;280
002870  f00002f0          AND      r2,r0,#0xf0           ;280
002874  2a90              CMP      r2,#0x90              ;280
002876  d908              BLS      |L12.10378|
002878  3060              ADDS     r0,r0,#0x60           ;280
00287a  70a0              STRB     r0,[r4,#2]            ;280
00287c  f0410001          ORR      r0,r1,#1              ;280
002880  7160              STRB     r0,[r4,#5]            ;280
002882  e002              B        |L12.10378|
                  |L12.10372|
002884  6c20              LDR      r0,[r4,#0x40]         ;280  ; cpu_clockticks
002886  1c40              ADDS     r0,r0,#1              ;280
002888  6420              STR      r0,[r4,#0x40]         ;280  ; cpu_clockticks
                  |L12.10378|
00288a  78a0              LDRB     r0,[r4,#2]            ;280  ; A
00288c  7961              LDRB     r1,[r4,#5]            ;280  ; P
00288e  2800              CMP      r0,#0                 ;280
002890  bf14              ITE      NE                    ;280
002892  f00101fd          ANDNE    r1,r1,#0xfd           ;280
002896  f0410102          ORREQ    r1,r1,#2              ;280
00289a  7161              STRB     r1,[r4,#5]            ;280
00289c  f0100f80          TST      r0,#0x80              ;280
0028a0  f43eaa4a          BEQ      |L12.3384|
0028a4  f7feba43          B        |L12.3374|
0028a8  89e0              LDRH     r0,[r4,#0xe]          ;280  ; PC
0028aa  1c40              ADDS     r0,r0,#1              ;280
0028ac  81e0              STRH     r0,[r4,#0xe]          ;280
0028ae  7a20              LDRB     r0,[r4,#8]            ;280  ; operand
0028b0  78e1              LDRB     r1,[r4,#3]            ;280  ; X
0028b2  78a3              LDRB     r3,[r4,#2]            ;280  ; A
0028b4  4408              ADD      r0,r0,r1              ;280
0028b6  4948              LDR      r1,|L12.10712|
0028b8  b2c0              UXTB     r0,r0                 ;280
0028ba  5c08              LDRB     r0,[r1,r0]            ;280
0028bc  f08002ff          EOR      r2,r0,#0xff           ;280
0028c0  7960              LDRB     r0,[r4,#5]            ;280  ; P
0028c2  441a              ADD      r2,r2,r3              ;280
0028c4  f0000101          AND      r1,r0,#1              ;280
0028c8  eb021301          ADD      r3,r2,r1,LSL #4       ;280
0028cc  3380              ADDS     r3,r3,#0x80           ;280
0028ce  f5b37f80          CMP      r3,#0x100             ;280
0028d2  bf2c              ITE      CS                    ;280
0028d4  f0400040          ORRCS    r0,r0,#0x40           ;280
0028d8  f00000bf          ANDCC    r0,r0,#0xbf           ;280
0028dc  7160              STRB     r0,[r4,#5]            ;280
0028de  1850              ADDS     r0,r2,r1              ;280
0028e0  7961              LDRB     r1,[r4,#5]            ;280  ; P
0028e2  28ff              CMP      r0,#0xff              ;280
0028e4  bfcc              ITE      GT                    ;280
0028e6  f0410101          ORRGT    r1,r1,#1              ;280
0028ea  f00101fe          ANDLE    r1,r1,#0xfe           ;280
0028ee  7161              STRB     r1,[r4,#5]            ;280
0028f0  b2c0              UXTB     r0,r0                 ;280
0028f2  b2c9              UXTB     r1,r1                 ;280
0028f4  70a0              STRB     r0,[r4,#2]            ;280
0028f6  f0110f08          TST      r1,#8                 ;280
0028fa  d016              BEQ      |L12.10538|
0028fc  3866              SUBS     r0,r0,#0x66           ;280
0028fe  b2c0              UXTB     r0,r0                 ;280
002900  70a0              STRB     r0,[r4,#2]            ;280
002902  f00101fe          AND      r1,r1,#0xfe           ;280
002906  f000020f          AND      r2,r0,#0xf            ;280
00290a  7161              STRB     r1,[r4,#5]            ;280
00290c  2a09              CMP      r2,#9                 ;280
00290e  bf84              ITT      HI                    ;280
002910  1d80              ADDHI    r0,r0,#6              ;280
002912  70a0              STRBHI   r0,[r4,#2]            ;280
002914  b2c0              UXTB     r0,r0                 ;280
002916  f00002f0          AND      r2,r0,#0xf0           ;280
00291a  2a90              CMP      r2,#0x90              ;280
00291c  d908              BLS      |L12.10544|
00291e  3060              ADDS     r0,r0,#0x60           ;280
002920  70a0              STRB     r0,[r4,#2]            ;280
002922  f0410001          ORR      r0,r1,#1              ;280
002926  7160              STRB     r0,[r4,#5]            ;280
002928  e002              B        |L12.10544|
                  |L12.10538|
00292a  6c20              LDR      r0,[r4,#0x40]         ;280  ; cpu_clockticks
00292c  1c40              ADDS     r0,r0,#1              ;280
00292e  6420              STR      r0,[r4,#0x40]         ;280  ; cpu_clockticks
                  |L12.10544|
002930  78a0              LDRB     r0,[r4,#2]            ;280  ; A
002932  7961              LDRB     r1,[r4,#5]            ;280  ; P
002934  2800              CMP      r0,#0                 ;280
002936  bf14              ITE      NE                    ;280
002938  f00101fd          ANDNE    r1,r1,#0xfd           ;280
00293c  f0410102          ORREQ    r1,r1,#2              ;280
002940  7161              STRB     r1,[r4,#5]            ;280
002942  f0100f80          TST      r0,#0x80              ;280
002946  f47fac06          BNE      |L12.8534|
00294a  f7fdbfed          B        |L12.2344|
00294e  89e0              LDRH     r0,[r4,#0xe]          ;280  ; PC
002950  4a21              LDR      r2,|L12.10712|
002952  1c40              ADDS     r0,r0,#1              ;280
002954  81e0              STRH     r0,[r4,#0xe]          ;280
002956  7a20              LDRB     r0,[r4,#8]            ;280  ; operand
002958  78e1              LDRB     r1,[r4,#3]            ;280  ; X
00295a  4408              ADD      r0,r0,r1              ;280
00295c  b2c1              UXTB     r1,r0                 ;280
00295e  5c50              LDRB     r0,[r2,r1]            ;280
002960  1c40              ADDS     r0,r0,#1              ;280
002962  f01000ff          ANDS     r0,r0,#0xff           ;280
002966  5450              STRB     r0,[r2,r1]            ;280
002968  7961              LDRB     r1,[r4,#5]            ;280  ; P
00296a  bf14              ITE      NE                    ;280
00296c  f00101fd          ANDNE    r1,r1,#0xfd           ;280
002970  f0410102          ORREQ    r1,r1,#2              ;280
002974  7161              STRB     r1,[r4,#5]            ;280
002976  f0100f80          TST      r0,#0x80              ;280
00297a  f43eaae1          BEQ      |L12.3904|
00297e  f7febadd          B        |L12.3900|
002982  7960              LDRB     r0,[r4,#5]            ;280  ; P
002984  f0400008          ORR      r0,r0,#8              ;280
002988  7160              STRB     r0,[r4,#5]            ;280
00298a  6c20              LDR      r0,[r4,#0x40]         ;280  ; cpu_clockticks
00298c  1c80              ADDS     r0,r0,#2              ;280
00298e  f7fdbd77          B        |L12.1152|
002992  4815              LDR      r0,|L12.10728|
002994  f7fffffe          BL       cpu_sbc
002998  6c20              LDR      r0,[r4,#0x40]         ;280  ; cpu_clockticks
00299a  1d00              ADDS     r0,r0,#4              ;280
00299c  f7fdbd70          B        |L12.1152|
0029a0  79a0              LDRB     r0,[r4,#6]            ;280  ; S
0029a2  490d              LDR      r1,|L12.10712|
0029a4  1c40              ADDS     r0,r0,#1              ;280
0029a6  b2c0              UXTB     r0,r0                 ;280
0029a8  71a0              STRB     r0,[r4,#6]            ;280
0029aa  4408              ADD      r0,r0,r1              ;280
0029ac  f8900100          LDRB     r0,[r0,#0x100]        ;280
0029b0  70e0              STRB     r0,[r4,#3]            ;280
0029b2  7961              LDRB     r1,[r4,#5]            ;280  ; P
0029b4  2800              CMP      r0,#0                 ;280
0029b6  bf14              ITE      NE                    ;280
0029b8  f00101fd          ANDNE    r1,r1,#0xfd           ;280
0029bc  f0410102          ORREQ    r1,r1,#2              ;280
0029c0  7161              STRB     r1,[r4,#5]            ;280
0029c2  f0100f80          TST      r0,#0x80              ;280
0029c6  f47fabc6          BNE      |L12.8534|
0029ca  f7fdbfad          B        |L12.2344|
0029ce  0000              DCW      0x0000
                  |L12.10704|
                          DCD      cpu_absx
                  |L12.10708|
                          DCD      cpu_indx
                  |L12.10712|
                          DCD      ||.bss||
                  |L12.10716|
                          DCD      cpu_immediate
                  |L12.10720|
                          DCD      cpu_abs
                  |L12.10724|
                          DCD      cpu_indy
                  |L12.10728|
                          DCD      cpu_absy
0029ec  4806              LDR      r0,|L12.10760|
0029ee  f7fffffe          BL       cpu_sbc
0029f2  6c20              LDR      r0,[r4,#0x40]         ;280  ; cpu_clockticks
0029f4  1d00              ADDS     r0,r0,#4              ;280
0029f6  f7fdbd43          B        |L12.1152|
0029fa  4803              LDR      r0,|L12.10760|
0029fc  f7fffffe          BL       cpu_inc
002a00  6c20              LDR      r0,[r4,#0x40]         ;280  ; cpu_clockticks
002a02  1dc0              ADDS     r0,r0,#7              ;280
002a04  f7fdbd3c          B        |L12.1152|
;;;39     
                          ENDP

                  |L12.10760|
                          DCD      cpu_absx

                          AREA ||i.cpu_getmemory||, CODE, READONLY, ALIGN=2

                  cpu_getmemory PROC
;;;245    //__forceinline int cpu_getmemory(uint16_t addr)
;;;246    int cpu_getmemory(uint16_t addr)
000000  f4004170          AND      r1,r0,#0xf000
;;;247    {   
;;;248        switch(addr & 0xF000){   
000004  1309              ASRS     r1,r1,#12
000006  2910              CMP      r1,#0x10
000008  d27e              BCS      |L13.264|
00000a  e8dff001          TBB      [pc,r1]
00000e  0808              DCB      0x08,0x08
000010  0d0d93a3          DCB      0x0d,0x0d,0x93,0xa3
000014  a3a3a5a5          DCB      0xa3,0xa3,0xa5,0xa5
000018  a5a5acac          DCB      0xa5,0xa5,0xac,0xac
00001c  acac              DCB      0xac,0xac
;;;249        case 0x0000:
;;;250        case 0x1000:
;;;251            return cpu_ram[addr&(CPU_RAM_SIZE-1)];    
00001e  4955              LDR      r1,|L13.372|
000020  f3c0000a          UBFX     r0,r0,#0,#11
000024  5c08              LDRB     r0,[r1,r0]
                  |L13.38|
;;;252        case 0x2000:
;;;253        case 0x3000:
;;;254             return ppu_read_register(addr&0x7);  
;;;255        case 0x4000:   
;;;256            if(addr < 0x4013){  
;;;257        //          return (apu_regbase[addr&0x1F]);
;;;258            }   
;;;259            if(addr == 0x4014){   
;;;260        //          //SpriteRAM_DMA();break; 
;;;261            }   
;;;262             if(addr == 0x4015){ //pAPU Sound / Vertical Clock Signal Register   
;;;263             }   
;;;264             if(addr == 0x4016){   
;;;265                return joypad_read(0); //controller 1
;;;266             }   
;;;267             if(addr == 0x4017){   
;;;268                return joypad_read(1); //controller 2 ( which is not connected and not working )
;;;269             }   
;;;270             break;   
;;;271        case 0x5000: /* expansion rom*/
;;;272        #ifdef EROM
;;;273            return EROM[addr - 0x5000];
;;;274        #else
;;;275            return 0;
;;;276        #endif
;;;277        case 0x6000:
;;;278        case 0x7000:
;;;279        #ifdef SRAM
;;;280            return SRAM[addr - 0x6000];
;;;281        #else
;;;282            return 0;
;;;283        #endif
;;;284        case 0x8000:
;;;285        case 0x9000:
;;;286        case 0xA000:   
;;;287        case 0xB000:   
;;;288            return prg_rombank0[addr - 0x8000];   
;;;289        case 0xC000:   
;;;290        case 0xD000:   
;;;291        case 0xE000:   
;;;292        case 0xF000:   
;;;293            return prg_rombank1[addr - 0xC000];    
;;;294        }   
;;;295    
;;;296        return (addr >> 8);  
;;;297    }
000026  4770              BX       lr
000028  f0000007          AND      r0,r0,#7              ;254
00002c  2808              CMP      r0,#8                 ;254
00002e  bf28              IT       CS
000030  4770              BXCS     lr
000032  e8dff000          TBB      [pc,r0]
000036  0508              DCB      0x05,0x08
000038  0b042104          DCB      0x0b,0x04,0x21,0x04
00003c  0429              DCB      0x04,0x29
00003e  e7f2              B        |L13.38|
000040  484d              LDR      r0,|L13.376|
                  |L13.66|
000042  7800              LDRB     r0,[r0,#0]  ; PPU_Reg
000044  4770              BX       lr
000046  484c              LDR      r0,|L13.376|
000048  7840              LDRB     r0,[r0,#1]  ; PPU_Reg
00004a  4770              BX       lr
00004c  494a              LDR      r1,|L13.376|
00004e  4b4b              LDR      r3,|L13.380|
000050  7888              LDRB     r0,[r1,#2]  ; PPU_Reg
000052  f0200280          BIC      r2,r0,#0x80
000056  708a              STRB     r2,[r1,#2]
000058  2200              MOVS     r2,#0
00005a  701a              STRB     r2,[r3,#0]
00005c  4a48              LDR      r2,|L13.384|
00005e  6812              LDR      r2,[r2,#0]  ; PPU_scanline
000060  3a15              SUBS     r2,r2,#0x15
000062  2af1              CMP      r2,#0xf1
000064  bf28              IT       CS
000066  4770              BXCS     lr
000068  780a              LDRB     r2,[r1,#0]  ; PPU_Reg
00006a  f0120f80          TST      r2,#0x80
00006e  bf04              ITT      EQ
000070  f0220203          BICEQ    r2,r2,#3
000074  700a              STRBEQ   r2,[r1,#0]
000076  4770              BX       lr
000078  4942              LDR      r1,|L13.388|
00007a  f8912100          LDRB     r2,[r1,#0x100]  ; Spr_Mem
00007e  5c88              LDRB     r0,[r1,r2]
000080  1c52              ADDS     r2,r2,#1
000082  f8812100          STRB     r2,[r1,#0x100]
000086  4770              BX       lr
000088  493f              LDR      r1,|L13.392|
00008a  880a              LDRH     r2,[r1,#0]  ; PPU_Mem
00008c  7888              LDRB     r0,[r1,#2]  ; PPU_Mem
00008e  f4124370          ANDS     r3,r2,#0xf000
000092  bf04              ITT      EQ
000094  684b              LDREQ    r3,[r1,#4]  ; PPU_Mem
000096  5c9b              LDRBEQ   r3,[r3,r2]
000098  d018              BEQ      |L13.204|
00009a  f5b35f80          CMP      r3,#0x1000
00009e  d010              BEQ      |L13.194|
0000a0  f5b35f00          CMP      r3,#0x2000
0000a4  d014              BEQ      |L13.208|
0000a6  f5b35f40          CMP      r3,#0x3000
0000aa  bf18              IT       NE
0000ac  2000              MOVNE    r0,#0
0000ae  d02f              BEQ      |L13.272|
                  |L13.176|
0000b0  4b31              LDR      r3,|L13.376|
0000b2  781b              LDRB     r3,[r3,#0]  ; PPU_Reg
0000b4  f0130f04          TST      r3,#4
0000b8  bf14              ITE      NE
0000ba  3220              ADDNE    r2,r2,#0x20
0000bc  1c52              ADDEQ    r2,r2,#1
0000be  800a              STRH     r2,[r1,#0]
0000c0  4770              BX       lr
                  |L13.194|
0000c2  688b              LDR      r3,[r1,#8]  ; PPU_Mem
0000c4  f3c20c0b          UBFX     r12,r2,#0,#12
0000c8  f813300c          LDRB     r3,[r3,r12]
                  |L13.204|
0000cc  708b              STRB     r3,[r1,#2]
0000ce  e7ef              B        |L13.176|
                  |L13.208|
0000d0  f3c2030b          UBFX     r3,r2,#0,#12
0000d4  f5b36f40          CMP      r3,#0xc00
0000d8  bf84              ITT      HI
0000da  f8d1c018          LDRHI    r12,[r1,#0x18]  ; PPU_Mem
0000de  f5a36340          SUBHI    r3,r3,#0xc00
0000e2  d810              BHI      |L13.262|
0000e4  f5b36f00          CMP      r3,#0x800
0000e8  bf84              ITT      HI
0000ea  f8d1c014          LDRHI    r12,[r1,#0x14]  ; PPU_Mem
0000ee  f5a36300          SUBHI    r3,r3,#0x800
0000f2  d808              BHI      |L13.262|
0000f4  f5b36f80          CMP      r3,#0x400
0000f8  bf86              ITTE     HI
0000fa  f8d1c010          LDRHI    r12,[r1,#0x10]  ; PPU_Mem
0000fe  f5a36380          SUBHI    r3,r3,#0x400
000102  f8d1c00c          LDRLS    r12,[r1,#0xc]  ; PPU_Mem
                  |L13.262|
000106  e000              B        |L13.266|
                  |L13.264|
000108  e01c              B        |L13.324|
                  |L13.266|
00010a  f81c3003          LDRB     r3,[r12,r3]
00010e  e7dd              B        |L13.204|
                  |L13.272|
000110  f6437310          MOV      r3,#0x3f10
000114  429a              CMP      r2,r3
000116  d305              BCC      |L13.292|
000118  f002000f          AND      r0,r2,#0xf
00011c  4408              ADD      r0,r0,r1
00011e  f890002c          LDRB     r0,[r0,#0x2c]
000122  e7c5              B        |L13.176|
                  |L13.292|
000124  f5b25f7c          CMP      r2,#0x3f00
000128  d3c2              BCC      |L13.176|
00012a  f002000f          AND      r0,r2,#0xf
00012e  4408              ADD      r0,r0,r1
000130  7f00              LDRB     r0,[r0,#0x1c]
000132  e7bd              B        |L13.176|
000134  f5a04180          SUB      r1,r0,#0x4000         ;264
000138  3916              SUBS     r1,r1,#0x16           ;264
00013a  d005              BEQ      |L13.328|
00013c  f5a04180          SUB      r1,r0,#0x4000         ;267
000140  3917              SUBS     r1,r1,#0x17           ;267
000142  d004              BEQ      |L13.334|
                  |L13.324|
000144  0a00              LSRS     r0,r0,#8              ;296
000146  4770              BX       lr
                  |L13.328|
000148  2000              MOVS     r0,#0                 ;265
00014a  f7ffbffe          B.W      joypad_read
                  |L13.334|
00014e  2001              MOVS     r0,#1                 ;268
000150  f7ffbffe          B.W      joypad_read
000154  2000              MOVS     r0,#0                 ;282
000156  4770              BX       lr
000158  490c              LDR      r1,|L13.396|
00015a  6b89              LDR      r1,[r1,#0x38]         ;288  ; prg_rombank0
00015c  4408              ADD      r0,r0,r1              ;288
00015e  f5a04000          SUB      r0,r0,#0x8000         ;288
000162  7800              LDRB     r0,[r0,#0]            ;288
000164  4770              BX       lr
000166  4909              LDR      r1,|L13.396|
000168  6bc9              LDR      r1,[r1,#0x3c]         ;293  ; prg_rombank1
00016a  4408              ADD      r0,r0,r1              ;293
00016c  f5a04040          SUB      r0,r0,#0xc000         ;293
000170  e767              B        |L13.66|
;;;298    __forceinline int cpu_getmemory16(uint16_t addr)
                          ENDP

000172  0000              DCW      0x0000
                  |L13.372|
                          DCD      ||.bss||
                  |L13.376|
                          DCD      PPU_Reg
                  |L13.380|
                          DCD      PPU_Latch_Flag
                  |L13.384|
                          DCD      PPU_scanline
                  |L13.388|
                          DCD      Spr_Mem
                  |L13.392|
                          DCD      PPU_Mem
                  |L13.396|
                          DCD      ||.data||

                          AREA ||i.cpu_immediate||, CODE, READONLY, ALIGN=2

                  cpu_immediate PROC
;;;8      /* #Immediate */   
;;;9      static inline uint16_t cpu_immediate(void)   
000000  4902              LDR      r1,|L14.12|
;;;10     {   
;;;11     	uint16_t savepc;
;;;12     	savepc=PC++;   
000002  89c8              LDRH     r0,[r1,#0xe]  ; PC
000004  1c42              ADDS     r2,r0,#1
000006  81ca              STRH     r2,[r1,#0xe]
;;;13     	return savepc;
;;;14     }   
000008  4770              BX       lr
;;;15     
                          ENDP

00000a  0000              DCW      0x0000
                  |L14.12|
                          DCD      ||.data||

                          AREA ||i.cpu_implied||, CODE, READONLY, ALIGN=1

                  cpu_implied PROC
;;;2      /* Implied */   
;;;3      static inline uint16_t cpu_implied(void)   
000000  2000              MOVS     r0,#0
;;;4      {   
;;;5      	return 0;
;;;6      }   
000002  4770              BX       lr
;;;7      
                          ENDP


                          AREA ||i.cpu_inc||, CODE, READONLY, ALIGN=2

                  cpu_inc PROC
;;;289    /* INC - Increment Memory */
;;;290    static inline void cpu_inc(CpuAdrMode adrmode)   
000000  e92d41f0          PUSH     {r4-r8,lr}
;;;291    {   
;;;292    	uint16_t savepc = adrmode();   
000004  4780              BLX      r0
000006  4604              MOV      r4,r0
;;;293    	uint16_t temp = cpu_getmemory(savepc);   
000008  f7fffffe          BL       cpu_getmemory
00000c  1c40              ADDS     r0,r0,#1
;;;294    	temp++;   
00000e  b286              UXTH     r6,r0
;;;295    	cpu_putmemory(savepc,temp & 0x00FF);   
000010  4620              MOV      r0,r4
000012  f4044370          AND      r3,r4,#0xf000
000016  131c              ASRS     r4,r3,#12
000018  2100              MOVS     r1,#0
00001a  f8dfc288          LDR      r12,|L16.676|
00001e  4ba2              LDR      r3,|L16.680|
000020  4da2              LDR      r5,|L16.684|
000022  b2f2              UXTB     r2,r6
000024  2c05              CMP      r4,#5
000026  f0808129          BCS.W    |L16.636|
00002a  e8dff004          TBB      [pc,r4]
00002e  0303              DCB      0x03,0x03
000030  09099400          DCB      0x09,0x09,0x94,0x00
000034  f3c0000a          UBFX     r0,r0,#0,#11
000038  f80c2000          STRB     r2,[r12,r0]
00003c  f000b91e          B.W      |L16.636|
000040  f0000107          AND      r1,r0,#7
000044  4f9a              LDR      r7,|L16.688|
000046  489b              LDR      r0,|L16.692|
000048  4c9b              LDR      r4,|L16.696|
00004a  2908              CMP      r1,#8
00004c  f0808116          BCS.W    |L16.636|
000050  e8dff001          TBB      [pc,r1]
000054  0407800a          DCB      0x04,0x07,0x80,0x0a
000058  0e182731          DCB      0x0e,0x18,0x27,0x31
00005c  703a              STRB     r2,[r7,#0]
00005e  f000b90d          B.W      |L16.636|
000062  707a              STRB     r2,[r7,#1]
000064  f000b90a          B.W      |L16.636|
000068  f8832100          STRB     r2,[r3,#0x100]
00006c  f000b906          B.W      |L16.636|
000070  f8930100          LDRB     r0,[r3,#0x100]  ; Spr_Mem
000074  541a              STRB     r2,[r3,r0]
000076  f8930100          LDRB     r0,[r3,#0x100]  ; Spr_Mem
00007a  1c40              ADDS     r0,r0,#1
00007c  f8830100          STRB     r0,[r3,#0x100]
000080  f000b8fc          B.W      |L16.636|
000084  7801              LDRB     r1,[r0,#0]  ; PPU_Latch_Flag
000086  2900              CMP      r1,#0
000088  bf08              IT       EQ
00008a  4b8c              LDREQ    r3,|L16.700|
00008c  d003              BEQ      |L16.150|
00008e  2aef              CMP      r2,#0xef
000090  bf88              IT       HI
000092  2200              MOVHI    r2,#0
000094  4b8a              LDR      r3,|L16.704|
                  |L16.150|
000096  f0810101          EOR      r1,r1,#1
00009a  701a              STRB     r2,[r3,#0]
00009c  7001              STRB     r1,[r0,#0]
00009e  f000b8ed          B.W      |L16.636|
0000a2  7821              LDRB     r1,[r4,#0]  ; PPU_Mem
0000a4  eb022101          ADD      r1,r2,r1,LSL #8
0000a8  8021              STRH     r1,[r4,#0]
0000aa  7801              LDRB     r1,[r0,#0]  ; PPU_Latch_Flag
0000ac  f0810101          EOR      r1,r1,#1
0000b0  7001              STRB     r1,[r0,#0]
0000b2  f000b8e3          B.W      |L16.636|
0000b6  8820              LDRH     r0,[r4,#0]  ; PPU_Mem
0000b8  f4104170          ANDS     r1,r0,#0xf000
0000bc  bf18              IT       NE
0000be  f5b15f80          CMPNE    r1,#0x1000
0000c2  d03f              BEQ      |L16.324|
0000c4  f5b15f00          CMP      r1,#0x2000
0000c8  d003              BEQ      |L16.210|
0000ca  f5b15f40          CMP      r1,#0x3000
0000ce  d019              BEQ      |L16.260|
0000d0  e038              B        |L16.324|
                  |L16.210|
0000d2  f3c0000b          UBFX     r0,r0,#0,#12
0000d6  f5b06f40          CMP      r0,#0xc00
0000da  bf84              ITT      HI
0000dc  69a1              LDRHI    r1,[r4,#0x18]  ; PPU_Mem
0000de  f5a06040          SUBHI    r0,r0,#0xc00
0000e2  d80d              BHI      |L16.256|
0000e4  f5b06f00          CMP      r0,#0x800
0000e8  bf84              ITT      HI
0000ea  6961              LDRHI    r1,[r4,#0x14]  ; PPU_Mem
0000ec  f5a06000          SUBHI    r0,r0,#0x800
0000f0  d806              BHI      |L16.256|
0000f2  f5b06f80          CMP      r0,#0x400
0000f6  bf86              ITTE     HI
0000f8  6921              LDRHI    r1,[r4,#0x10]  ; PPU_Mem
0000fa  f5a06080          SUBHI    r0,r0,#0x400
0000fe  68e1              LDRLS    r1,[r4,#0xc]  ; PPU_Mem
                  |L16.256|
000100  540a              STRB     r2,[r1,r0]
000102  e01f              B        |L16.324|
                  |L16.260|
000104  f000011f          AND      r1,r0,#0x1f
000108  f000000f          AND      r0,r0,#0xf
00010c  290f              CMP      r1,#0xf
00010e  4420              ADD      r0,r0,r4
000110  d915              BLS      |L16.318|
000112  f880202c          STRB     r2,[r0,#0x2c]
000116  7820              LDRB     r0,[r4,#0]  ; PPU_Mem
000118  f0100f03          TST      r0,#3
00011c  d112              BNE      |L16.324|
00011e  7722              STRB     r2,[r4,#0x1c]
000120  f884202c          STRB     r2,[r4,#0x2c]
000124  f8842020          STRB     r2,[r4,#0x20]
000128  f8842030          STRB     r2,[r4,#0x30]
00012c  f8842024          STRB     r2,[r4,#0x24]
000130  f8842034          STRB     r2,[r4,#0x34]
000134  f8842028          STRB     r2,[r4,#0x28]
000138  f8842038          STRB     r2,[r4,#0x38]
00013c  e002              B        |L16.324|
                  |L16.318|
00013e  7702              STRB     r2,[r0,#0x1c]
000140  f7fffffe          BL       premap_palette
                  |L16.324|
000144  7838              LDRB     r0,[r7,#0]  ; PPU_Reg
000146  f0100f04          TST      r0,#4
00014a  8820              LDRH     r0,[r4,#0]  ; PPU_Mem
00014c  bf14              ITE      NE
00014e  3020              ADDNE    r0,r0,#0x20
000150  1c40              ADDEQ    r0,r0,#1
000152  8020              STRH     r0,[r4,#0]
000154  e092              B        |L16.636|
000156  f5a04480          SUB      r4,r0,#0x4000
00015a  3c14              SUBS     r4,r4,#0x14
00015c  d004              BEQ      |L16.360|
00015e  f5a04380          SUB      r3,r0,#0x4000
000162  3b16              SUBS     r3,r3,#0x16
000164  d03b              BEQ      |L16.478|
000166  e089              B        |L16.636|
                  |L16.360|
000168  6c28              LDR      r0,[r5,#0x40]  ; cpu_clockticks
00016a  2100              MOVS     r1,#0
00016c  f5a07000          SUB      r0,r0,#0x200
000170  6428              STR      r0,[r5,#0x40]  ; cpu_clockticks
000172  0910              LSRS     r0,r2,#4
000174  2810              CMP      r0,#0x10
000176  d217              BCS      |L16.424|
000178  e8dff000          TBB      [pc,r0]
00017c  08081616          DCB      0x08,0x08,0x16,0x16
000180  16168080          DCB      0x16,0x16,0x80,0x80
000184  0b0b0b0b          DCB      0x0b,0x0b,0x0b,0x0b
000188  11111111          DCB      0x11,0x11,0x11,0x11
00018c  eb0c2102          ADD      r1,r12,r2,LSL #8
000190  e00a              B        |L16.424|
000192  6ba8              LDR      r0,[r5,#0x38]  ; prg_rombank0
000194  eb002002          ADD      r0,r0,r2,LSL #8
000198  f5a04100          SUB      r1,r0,#0x8000
00019c  e004              B        |L16.424|
00019e  6be8              LDR      r0,[r5,#0x3c]  ; prg_rombank1
0001a0  eb002002          ADD      r0,r0,r2,LSL #8
0001a4  f5a04140          SUB      r1,r0,#0xc000
                  |L16.424|
0001a8  1a58              SUBS     r0,r3,r1
0001aa  2800              CMP      r0,#0
0001ac  dd04              BLE      |L16.440|
0001ae  f5b07f80          CMP      r0,#0x100
0001b2  bfb8              IT       LT
0001b4  2000              MOVLT    r0,#0
0001b6  db05              BLT      |L16.452|
                  |L16.440|
0001b8  f44f7280          MOV      r2,#0x100
0001bc  483a              LDR      r0,|L16.680|
0001be  f7fffffe          BL       __aeabi_memmove
0001c2  e05b              B        |L16.636|
                  |L16.452|
0001c4  5c0a              LDRB     r2,[r1,r0]
0001c6  541a              STRB     r2,[r3,r0]
0001c8  180a              ADDS     r2,r1,r0
0001ca  eb030c00          ADD      r12,r3,r0
0001ce  7852              LDRB     r2,[r2,#1]
0001d0  1c80              ADDS     r0,r0,#2
0001d2  f88c2001          STRB     r2,[r12,#1]
0001d6  f5b07f80          CMP      r0,#0x100
0001da  dbf3              BLT      |L16.452|
0001dc  e04e              B        |L16.636|
                  |L16.478|
0001de  2a00              CMP      r2,#0
0001e0  d04a              BEQ      |L16.632|
0001e2  4838              LDR      r0,|L16.708|
0001e4  7001              STRB     r1,[r0,#0]
0001e6  4838              LDR      r0,|L16.712|
0001e8  6900              LDR      r0,[r0,#0x10]
0001ea  43c0              MVNS     r0,r0
0001ec  b283              UXTH     r3,r0
0001ee  4837              LDR      r0,|L16.716|
0001f0  8801              LDRH     r1,[r0,#0]  ; joys
0001f2  f5b16f40          CMP      r1,#0xc00
0001f6  bf94              ITE      LS
0001f8  f04f0c00          MOVLS    r12,#0
0001fc  f04f0c01          MOVHI    r12,#1
000200  ea43430c          ORR      r3,r3,r12,LSL #16
000204  f5b16f80          CMP      r1,#0x400
000208  bf34              ITE      CC
00020a  2101              MOVCC    r1,#1
00020c  2100              MOVCS    r1,#0
00020e  ea434341          ORR      r3,r3,r1,LSL #17
000212  8841              LDRH     r1,[r0,#2]  ; joys
000214  f5b16f40          CMP      r1,#0xc00
000218  bf8c              ITE      HI
00021a  f04f0c01          MOVHI    r12,#1
00021e  f04f0c00          MOVLS    r12,#0
000222  ea43438c          ORR      r3,r3,r12,LSL #18
000226  f5b16f80          CMP      r1,#0x400
00022a  bf34              ITE      CC
00022c  2101              MOVCC    r1,#1
00022e  2100              MOVCS    r1,#0
000230  ea4341c1          ORR      r1,r3,r1,LSL #19
000234  88c3              LDRH     r3,[r0,#6]  ; joys
000236  f5b36f40          CMP      r3,#0xc00
00023a  bf8c              ITE      HI
00023c  f04f0c01          MOVHI    r12,#1
000240  f04f0c00          MOVLS    r12,#0
000244  ea41510c          ORR      r1,r1,r12,LSL #20
000248  f5b36f80          CMP      r3,#0x400
00024c  bf34              ITE      CC
00024e  2301              MOVCC    r3,#1
000250  2300              MOVCS    r3,#0
000252  ea415143          ORR      r1,r1,r3,LSL #21
000256  8880              LDRH     r0,[r0,#4]  ; joys
000258  f5b06f40          CMP      r0,#0xc00
00025c  bf8c              ITE      HI
00025e  2301              MOVHI    r3,#1
000260  2300              MOVLS    r3,#0
000262  ea415183          ORR      r1,r1,r3,LSL #22
000266  f5b06f80          CMP      r0,#0x400
00026a  bf34              ITE      CC
00026c  2001              MOVCC    r0,#1
00026e  2000              MOVCS    r0,#0
000270  ea4150c0          ORR      r0,r1,r0,LSL #23
000274  6168              STR      r0,[r5,#0x14]  ; joypad_state
000276  6168              STR      r0,[r5,#0x14]  ; joypad_state
                  |L16.632|
000278  4815              LDR      r0,|L16.720|
00027a  7002              STRB     r2,[r0,#0]
                  |L16.636|
;;;296    	SetFlag(Z_FLAG, (temp & 0x00FF) == 0x0000);
00027c  7968              LDRB     r0,[r5,#5]  ; P
00027e  f0160fff          TST      r6,#0xff
000282  bf0c              ITE      EQ
000284  f0400002          ORREQ    r0,r0,#2
000288  f0200002          BICNE    r0,r0,#2
00028c  7168              STRB     r0,[r5,#5]
;;;297    	SetFlag(N_FLAG, temp & 0x0080);
00028e  f0160f80          TST      r6,#0x80
000292  b2c0              UXTB     r0,r0
000294  bf14              ITE      NE
000296  f0400080          ORRNE    r0,r0,#0x80
00029a  f0200080          BICEQ    r0,r0,#0x80
00029e  7168              STRB     r0,[r5,#5]
;;;298    }   
0002a0  e8bd81f0          POP      {r4-r8,pc}
;;;299    
                          ENDP

                  |L16.676|
                          DCD      ||.bss||
                  |L16.680|
                          DCD      Spr_Mem
                  |L16.684|
                          DCD      ||.data||
                  |L16.688|
                          DCD      PPU_Reg
                  |L16.692|
                          DCD      PPU_Latch_Flag
                  |L16.696|
                          DCD      PPU_Mem
                  |L16.700|
                          DCD      PPU_BG_HScrlOrg
                  |L16.704|
                          DCD      PPU_BG_VScrlOrg
                  |L16.708|
                          DCD      ||.data||+0x9
                  |L16.712|
                          DCD      0x40021000
                  |L16.716|
                          DCD      joys
                  |L16.720|
                          DCD      ||.data||+0xb

                          AREA ||i.cpu_indabsx||, CODE, READONLY, ALIGN=2

                  cpu_indabsx PROC
;;;138    /* (ABS,X) */   
;;;139    static inline uint16_t cpu_indabsx(void)   
000000  485d              LDR      r0,|L17.376|
;;;140    {     
;;;141    	uint16_t savepc;
;;;142    	uint16_t help = cpu_getoperand16();
000002  8a00              LDRH     r0,[r0,#0x10]  ; operand16
000004  f4004170          AND      r1,r0,#0xf000
000008  1309              ASRS     r1,r1,#12
00000a  2910              CMP      r1,#0x10
00000c  d27e              BCS      |L17.268|
00000e  e8dff001          TBB      [pc,r1]
000012  0808              DCB      0x08,0x08
000014  0d0d93a3          DCB      0x0d,0x0d,0x93,0xa3
000018  a3a3a5a5          DCB      0xa3,0xa3,0xa5,0xa5
00001c  a5a5abab          DCB      0xa5,0xa5,0xab,0xab
000020  abab              DCB      0xab,0xab
000022  4956              LDR      r1,|L17.380|
000024  f3c0000a          UBFX     r0,r0,#0,#11
000028  5a08              LDRH     r0,[r1,r0]
                  |L17.42|
;;;143    	savepc = cpu_getmemory16(help);
;;;144    	return savepc;
;;;145    }   
00002a  4770              BX       lr
00002c  f0000007          AND      r0,r0,#7
000030  2808              CMP      r0,#8
000032  bf28              IT       CS
000034  4770              BXCS     lr
000036  e8dff000          TBB      [pc,r0]
00003a  0508              DCB      0x05,0x08
00003c  0b042104          DCB      0x0b,0x04,0x21,0x04
000040  0429              DCB      0x04,0x29
000042  e7f2              B        |L17.42|
000044  484e              LDR      r0,|L17.384|
000046  7800              LDRB     r0,[r0,#0]  ; PPU_Reg
000048  4770              BX       lr
00004a  484d              LDR      r0,|L17.384|
00004c  7840              LDRB     r0,[r0,#1]  ; PPU_Reg
00004e  4770              BX       lr
000050  494b              LDR      r1,|L17.384|
000052  4b4c              LDR      r3,|L17.388|
000054  7888              LDRB     r0,[r1,#2]  ; PPU_Reg
000056  f0200280          BIC      r2,r0,#0x80
00005a  708a              STRB     r2,[r1,#2]
00005c  2200              MOVS     r2,#0
00005e  701a              STRB     r2,[r3,#0]
000060  4a49              LDR      r2,|L17.392|
000062  6812              LDR      r2,[r2,#0]  ; PPU_scanline
000064  3a15              SUBS     r2,r2,#0x15
000066  2af1              CMP      r2,#0xf1
000068  bf28              IT       CS
00006a  4770              BXCS     lr
00006c  780a              LDRB     r2,[r1,#0]  ; PPU_Reg
00006e  f0120f80          TST      r2,#0x80
000072  bf04              ITT      EQ
000074  f0220203          BICEQ    r2,r2,#3
000078  700a              STRBEQ   r2,[r1,#0]
00007a  4770              BX       lr
00007c  4943              LDR      r1,|L17.396|
00007e  f8912100          LDRB     r2,[r1,#0x100]  ; Spr_Mem
000082  5c88              LDRB     r0,[r1,r2]
000084  1c52              ADDS     r2,r2,#1
000086  f8812100          STRB     r2,[r1,#0x100]
00008a  4770              BX       lr
00008c  4940              LDR      r1,|L17.400|
00008e  880a              LDRH     r2,[r1,#0]  ; PPU_Mem
000090  7888              LDRB     r0,[r1,#2]  ; PPU_Mem
000092  f4124370          ANDS     r3,r2,#0xf000
000096  bf04              ITT      EQ
000098  684b              LDREQ    r3,[r1,#4]  ; PPU_Mem
00009a  5c9b              LDRBEQ   r3,[r3,r2]
00009c  d018              BEQ      |L17.208|
00009e  f5b35f80          CMP      r3,#0x1000
0000a2  d010              BEQ      |L17.198|
0000a4  f5b35f00          CMP      r3,#0x2000
0000a8  d014              BEQ      |L17.212|
0000aa  f5b35f40          CMP      r3,#0x3000
0000ae  bf18              IT       NE
0000b0  2000              MOVNE    r0,#0
0000b2  d02f              BEQ      |L17.276|
                  |L17.180|
0000b4  4b32              LDR      r3,|L17.384|
0000b6  781b              LDRB     r3,[r3,#0]  ; PPU_Reg
0000b8  f0130f04          TST      r3,#4
0000bc  bf14              ITE      NE
0000be  3220              ADDNE    r2,r2,#0x20
0000c0  1c52              ADDEQ    r2,r2,#1
0000c2  800a              STRH     r2,[r1,#0]
0000c4  4770              BX       lr
                  |L17.198|
0000c6  688b              LDR      r3,[r1,#8]  ; PPU_Mem
0000c8  f3c20c0b          UBFX     r12,r2,#0,#12
0000cc  f813300c          LDRB     r3,[r3,r12]
                  |L17.208|
0000d0  708b              STRB     r3,[r1,#2]
0000d2  e7ef              B        |L17.180|
                  |L17.212|
0000d4  f3c2030b          UBFX     r3,r2,#0,#12
0000d8  f5b36f40          CMP      r3,#0xc00
0000dc  bf84              ITT      HI
0000de  f8d1c018          LDRHI    r12,[r1,#0x18]  ; PPU_Mem
0000e2  f5a36340          SUBHI    r3,r3,#0xc00
0000e6  d810              BHI      |L17.266|
0000e8  f5b36f00          CMP      r3,#0x800
0000ec  bf84              ITT      HI
0000ee  f8d1c014          LDRHI    r12,[r1,#0x14]  ; PPU_Mem
0000f2  f5a36300          SUBHI    r3,r3,#0x800
0000f6  d808              BHI      |L17.266|
0000f8  f5b36f80          CMP      r3,#0x400
0000fc  bf86              ITTE     HI
0000fe  f8d1c010          LDRHI    r12,[r1,#0x10]  ; PPU_Mem
000102  f5a36380          SUBHI    r3,r3,#0x400
000106  f8d1c00c          LDRLS    r12,[r1,#0xc]  ; PPU_Mem
                  |L17.266|
00010a  e000              B        |L17.270|
                  |L17.268|
00010c  e01c              B        |L17.328|
                  |L17.270|
00010e  f81c3003          LDRB     r3,[r12,r3]
000112  e7dd              B        |L17.208|
                  |L17.276|
000114  f6437310          MOV      r3,#0x3f10
000118  429a              CMP      r2,r3
00011a  d305              BCC      |L17.296|
00011c  f002000f          AND      r0,r2,#0xf
000120  4408              ADD      r0,r0,r1
000122  f890002c          LDRB     r0,[r0,#0x2c]
000126  e7c5              B        |L17.180|
                  |L17.296|
000128  f5b25f7c          CMP      r2,#0x3f00
00012c  d3c2              BCC      |L17.180|
00012e  f002000f          AND      r0,r2,#0xf
000132  4408              ADD      r0,r0,r1
000134  7f00              LDRB     r0,[r0,#0x1c]
000136  e7bd              B        |L17.180|
000138  f5a04180          SUB      r1,r0,#0x4000
00013c  3916              SUBS     r1,r1,#0x16
00013e  d005              BEQ      |L17.332|
000140  f5a04180          SUB      r1,r0,#0x4000
000144  3917              SUBS     r1,r1,#0x17
000146  d004              BEQ      |L17.338|
                  |L17.328|
000148  0a00              LSRS     r0,r0,#8
00014a  4770              BX       lr
                  |L17.332|
00014c  2000              MOVS     r0,#0
00014e  f7ffbffe          B.W      joypad_read
                  |L17.338|
000152  2001              MOVS     r0,#1
000154  f7ffbffe          B.W      joypad_read
000158  2000              MOVS     r0,#0
00015a  4770              BX       lr
00015c  4906              LDR      r1,|L17.376|
00015e  6b89              LDR      r1,[r1,#0x38]  ; prg_rombank0
000160  4408              ADD      r0,r0,r1
000162  f5a04000          SUB      r0,r0,#0x8000
000166  e004              B        |L17.370|
000168  4903              LDR      r1,|L17.376|
00016a  6bc9              LDR      r1,[r1,#0x3c]  ; prg_rombank1
00016c  4408              ADD      r0,r0,r1
00016e  f5a04040          SUB      r0,r0,#0xc000
                  |L17.370|
000172  8800              LDRH     r0,[r0,#0]
000174  4770              BX       lr
;;;146    
                          ENDP

000176  0000              DCW      0x0000
                  |L17.376|
                          DCD      ||.data||
                  |L17.380|
                          DCD      ||.bss||
                  |L17.384|
                          DCD      PPU_Reg
                  |L17.388|
                          DCD      PPU_Latch_Flag
                  |L17.392|
                          DCD      PPU_scanline
                  |L17.396|
                          DCD      Spr_Mem
                  |L17.400|
                          DCD      PPU_Mem

                          AREA ||i.cpu_indirect||, CODE, READONLY, ALIGN=2

                  cpu_indirect PROC
;;;41     /* (ABS) */   
;;;42     static inline uint16_t cpu_indirect(void)   
000000  485e              LDR      r0,|L18.380|
;;;43     {     
000002  b500              PUSH     {lr}
;;;44     	uint16_t savepc;
;;;45       	uint16_t help = cpu_getoperand16();
000004  8a00              LDRH     r0,[r0,#0x10]  ; operand16
000006  f4004170          AND      r1,r0,#0xf000
00000a  1309              ASRS     r1,r1,#12
00000c  2910              CMP      r1,#0x10
00000e  d27d              BCS      |L18.268|
000010  e8dff001          TBB      [pc,r1]
000014  08080d0d          DCB      0x08,0x08,0x0d,0x0d
000018  8fa4a4a4          DCB      0x8f,0xa4,0xa4,0xa4
00001c  a6a6a6a6          DCB      0xa6,0xa6,0xa6,0xa6
000020  acacacac          DCB      0xac,0xac,0xac,0xac
000024  4956              LDR      r1,|L18.384|
000026  f3c0000a          UBFX     r0,r0,#0,#11
00002a  5a08              LDRH     r0,[r1,r0]
00002c  e08e              B        |L18.332|
00002e  f0000007          AND      r0,r0,#7
000032  2808              CMP      r0,#8
000034  d244              BCS      |L18.192|
000036  e8dff000          TBB      [pc,r0]
00003a  0407              DCB      0x04,0x07
00003c  0a891f89          DCB      0x0a,0x89,0x1f,0x89
000040  8927              DCB      0x89,0x27
000042  4850              LDR      r0,|L18.388|
000044  7800              LDRB     r0,[r0,#0]  ; PPU_Reg
000046  e081              B        |L18.332|
000048  484e              LDR      r0,|L18.388|
00004a  7840              LDRB     r0,[r0,#1]  ; PPU_Reg
00004c  e07e              B        |L18.332|
00004e  494d              LDR      r1,|L18.388|
000050  4b4d              LDR      r3,|L18.392|
000052  7888              LDRB     r0,[r1,#2]  ; PPU_Reg
000054  f0200280          BIC      r2,r0,#0x80
000058  708a              STRB     r2,[r1,#2]
00005a  2200              MOVS     r2,#0
00005c  701a              STRB     r2,[r3,#0]
00005e  4a4b              LDR      r2,|L18.396|
000060  6812              LDR      r2,[r2,#0]  ; PPU_scanline
000062  3a15              SUBS     r2,r2,#0x15
000064  2af1              CMP      r2,#0xf1
000066  d271              BCS      |L18.332|
000068  780a              LDRB     r2,[r1,#0]  ; PPU_Reg
00006a  f0120f80          TST      r2,#0x80
00006e  bf04              ITT      EQ
000070  f0220203          BICEQ    r2,r2,#3
000074  700a              STRBEQ   r2,[r1,#0]
000076  e069              B        |L18.332|
000078  4945              LDR      r1,|L18.400|
00007a  f8912100          LDRB     r2,[r1,#0x100]  ; Spr_Mem
00007e  5c88              LDRB     r0,[r1,r2]
000080  1c52              ADDS     r2,r2,#1
000082  f8812100          STRB     r2,[r1,#0x100]
000086  e061              B        |L18.332|
000088  4942              LDR      r1,|L18.404|
00008a  880a              LDRH     r2,[r1,#0]  ; PPU_Mem
00008c  7888              LDRB     r0,[r1,#2]  ; PPU_Mem
00008e  f4124370          ANDS     r3,r2,#0xf000
000092  bf04              ITT      EQ
000094  684b              LDREQ    r3,[r1,#4]  ; PPU_Mem
000096  5c9b              LDRBEQ   r3,[r3,r2]
000098  d018              BEQ      |L18.204|
00009a  f5b35f80          CMP      r3,#0x1000
00009e  d010              BEQ      |L18.194|
0000a0  f5b35f00          CMP      r3,#0x2000
0000a4  d014              BEQ      |L18.208|
0000a6  f5b35f40          CMP      r3,#0x3000
0000aa  bf18              IT       NE
0000ac  2000              MOVNE    r0,#0
0000ae  d02e              BEQ      |L18.270|
                  |L18.176|
0000b0  4b34              LDR      r3,|L18.388|
0000b2  781b              LDRB     r3,[r3,#0]  ; PPU_Reg
0000b4  f0130f04          TST      r3,#4
0000b8  bf14              ITE      NE
0000ba  3220              ADDNE    r2,r2,#0x20
0000bc  1c52              ADDEQ    r2,r2,#1
0000be  800a              STRH     r2,[r1,#0]
                  |L18.192|
0000c0  e044              B        |L18.332|
                  |L18.194|
0000c2  688b              LDR      r3,[r1,#8]  ; PPU_Mem
0000c4  f3c20c0b          UBFX     r12,r2,#0,#12
0000c8  f813300c          LDRB     r3,[r3,r12]
                  |L18.204|
0000cc  708b              STRB     r3,[r1,#2]
0000ce  e7ef              B        |L18.176|
                  |L18.208|
0000d0  f3c2030b          UBFX     r3,r2,#0,#12
0000d4  f5b36f40          CMP      r3,#0xc00
0000d8  bf84              ITT      HI
0000da  f8d1c018          LDRHI    r12,[r1,#0x18]  ; PPU_Mem
0000de  f5a36340          SUBHI    r3,r3,#0xc00
0000e2  d810              BHI      |L18.262|
0000e4  f5b36f00          CMP      r3,#0x800
0000e8  bf84              ITT      HI
0000ea  f8d1c014          LDRHI    r12,[r1,#0x14]  ; PPU_Mem
0000ee  f5a36300          SUBHI    r3,r3,#0x800
0000f2  d808              BHI      |L18.262|
0000f4  f5b36f80          CMP      r3,#0x400
0000f8  bf86              ITTE     HI
0000fa  f8d1c010          LDRHI    r12,[r1,#0x10]  ; PPU_Mem
0000fe  f5a36380          SUBHI    r3,r3,#0x400
000102  f8d1c00c          LDRLS    r12,[r1,#0xc]  ; PPU_Mem
                  |L18.262|
000106  f81c3003          LDRB     r3,[r12,r3]
00010a  e7df              B        |L18.204|
                  |L18.268|
00010c  e01d              B        |L18.330|
                  |L18.270|
00010e  f6437310          MOV      r3,#0x3f10
000112  429a              CMP      r2,r3
000114  d305              BCC      |L18.290|
000116  f002000f          AND      r0,r2,#0xf
00011a  4408              ADD      r0,r0,r1
00011c  f890002c          LDRB     r0,[r0,#0x2c]
000120  e7c6              B        |L18.176|
                  |L18.290|
000122  f5b25f7c          CMP      r2,#0x3f00
000126  d3c3              BCC      |L18.176|
000128  f002000f          AND      r0,r2,#0xf
00012c  4408              ADD      r0,r0,r1
00012e  7f00              LDRB     r0,[r0,#0x1c]
000130  e7be              B        |L18.176|
000132  f5a04180          SUB      r1,r0,#0x4000
000136  3916              SUBS     r1,r1,#0x16
000138  bf08              IT       EQ
00013a  2000              MOVEQ    r0,#0
00013c  d00b              BEQ      |L18.342|
00013e  f5a04180          SUB      r1,r0,#0x4000
000142  3917              SUBS     r1,r1,#0x17
000144  bf08              IT       EQ
000146  2001              MOVEQ    r0,#1
000148  d005              BEQ      |L18.342|
                  |L18.330|
00014a  0a00              LSRS     r0,r0,#8
                  |L18.332|
;;;46       	savepc = cpu_getmemory16(help);
;;;47     
;;;48       	PC++;   
00014c  4a0b              LDR      r2,|L18.380|
00014e  89d1              LDRH     r1,[r2,#0xe]  ; PC
000150  1c89              ADDS     r1,r1,#2
;;;49       	PC++;   
000152  81d1              STRH     r1,[r2,#0xe]
;;;50     
;;;51      	return savepc;
;;;52     }
000154  bd00              POP      {pc}
                  |L18.342|
000156  f7fffffe          BL       joypad_read
00015a  e7f7              B        |L18.332|
00015c  2000              MOVS     r0,#0
00015e  e7f5              B        |L18.332|
000160  4906              LDR      r1,|L18.380|
000162  6b89              LDR      r1,[r1,#0x38]  ; prg_rombank0
000164  4408              ADD      r0,r0,r1
000166  f5a04000          SUB      r0,r0,#0x8000
00016a  e004              B        |L18.374|
00016c  4903              LDR      r1,|L18.380|
00016e  6bc9              LDR      r1,[r1,#0x3c]  ; prg_rombank1
000170  4408              ADD      r0,r0,r1
000172  f5a04040          SUB      r0,r0,#0xc000
                  |L18.374|
000176  8800              LDRH     r0,[r0,#0]
000178  e7e8              B        |L18.332|
;;;53     
                          ENDP

00017a  0000              DCW      0x0000
                  |L18.380|
                          DCD      ||.data||
                  |L18.384|
                          DCD      ||.bss||
                  |L18.388|
                          DCD      PPU_Reg
                  |L18.392|
                          DCD      PPU_Latch_Flag
                  |L18.396|
                          DCD      PPU_scanline
                  |L18.400|
                          DCD      Spr_Mem
                  |L18.404|
                          DCD      PPU_Mem

                          AREA ||i.cpu_indx||, CODE, READONLY, ALIGN=2

                  cpu_indx PROC
;;;113    /* (ZP,X) */   
;;;114    static inline uint16_t cpu_indx(void)   
000000  4805              LDR      r0,|L19.24|
000002  89c1              LDRH     r1,[r0,#0xe]  ; PC
000004  1c49              ADDS     r1,r1,#1
000006  81c1              STRH     r1,[r0,#0xe]
000008  7a01              LDRB     r1,[r0,#8]  ; operand
;;;115    {      
;;;116    	uint16_t savepc;
;;;117    	uint8_t value = cpu_getoperand() + Y; 
00000a  7900              LDRB     r0,[r0,#4]  ; Y
00000c  4408              ADD      r0,r0,r1
;;;118    	// savepc = cpu_getmemory16(value);    
;;;119    	savepc = cpu_getzeropage16(value);
00000e  4903              LDR      r1,|L19.28|
000010  b2c0              UXTB     r0,r0                 ;117
000012  5c08              LDRB     r0,[r1,r0]
;;;120    	return savepc;
;;;121    }   
000014  4770              BX       lr
;;;122    
                          ENDP

000016  0000              DCW      0x0000
                  |L19.24|
                          DCD      ||.data||
                  |L19.28|
                          DCD      ||.bss||

                          AREA ||i.cpu_indy||, CODE, READONLY, ALIGN=2

                  cpu_indy PROC
;;;123    /* (ZP),Y */   
;;;124    static inline uint16_t cpu_indy(void)   
000000  4866              LDR      r0,|L20.412|
;;;125    {     
000002  b500              PUSH     {lr}
000004  89c1              LDRH     r1,[r0,#0xe]  ; PC
000006  1c49              ADDS     r1,r1,#1
000008  81c1              STRH     r1,[r0,#0xe]
00000a  2100              MOVS     r1,#0
00000c  7a00              LDRB     r0,[r0,#8]  ; operand
00000e  1309              ASRS     r1,r1,#12
000010  2910              CMP      r1,#0x10
000012  d27b              BCS      |L20.268|
000014  e8dff001          TBB      [pc,r1]
000018  08080b0b          DCB      0x08,0x08,0x0b,0x0b
00001c  8da5a5a5          DCB      0x8d,0xa5,0xa5,0xa5
000020  a7a7a7a7          DCB      0xa7,0xa7,0xa7,0xa7
000024  adadadad          DCB      0xad,0xad,0xad,0xad
000028  495d              LDR      r1,|L20.416|
00002a  5a08              LDRH     r0,[r1,r0]
00002c  e08e              B        |L20.332|
00002e  f0000007          AND      r0,r0,#7
000032  2808              CMP      r0,#8
000034  d244              BCS      |L20.192|
000036  e8dff000          TBB      [pc,r0]
00003a  0407              DCB      0x04,0x07
00003c  0a891f89          DCB      0x0a,0x89,0x1f,0x89
000040  8927              DCB      0x89,0x27
000042  4858              LDR      r0,|L20.420|
000044  7800              LDRB     r0,[r0,#0]  ; PPU_Reg
000046  e081              B        |L20.332|
000048  4856              LDR      r0,|L20.420|
00004a  7840              LDRB     r0,[r0,#1]  ; PPU_Reg
00004c  e07e              B        |L20.332|
00004e  4955              LDR      r1,|L20.420|
000050  4b55              LDR      r3,|L20.424|
000052  7888              LDRB     r0,[r1,#2]  ; PPU_Reg
000054  f0200280          BIC      r2,r0,#0x80
000058  708a              STRB     r2,[r1,#2]
00005a  2200              MOVS     r2,#0
00005c  701a              STRB     r2,[r3,#0]
00005e  4a53              LDR      r2,|L20.428|
000060  6812              LDR      r2,[r2,#0]  ; PPU_scanline
000062  3a15              SUBS     r2,r2,#0x15
000064  2af1              CMP      r2,#0xf1
000066  d271              BCS      |L20.332|
000068  780a              LDRB     r2,[r1,#0]  ; PPU_Reg
00006a  f0120f80          TST      r2,#0x80
00006e  bf04              ITT      EQ
000070  f0220203          BICEQ    r2,r2,#3
000074  700a              STRBEQ   r2,[r1,#0]
000076  e069              B        |L20.332|
000078  494d              LDR      r1,|L20.432|
00007a  f8912100          LDRB     r2,[r1,#0x100]  ; Spr_Mem
00007e  5c88              LDRB     r0,[r1,r2]
000080  1c52              ADDS     r2,r2,#1
000082  f8812100          STRB     r2,[r1,#0x100]
000086  e061              B        |L20.332|
000088  494a              LDR      r1,|L20.436|
00008a  880a              LDRH     r2,[r1,#0]  ; PPU_Mem
00008c  7888              LDRB     r0,[r1,#2]  ; PPU_Mem
00008e  f4124370          ANDS     r3,r2,#0xf000
000092  bf04              ITT      EQ
000094  684b              LDREQ    r3,[r1,#4]  ; PPU_Mem
000096  5c9b              LDRBEQ   r3,[r3,r2]
000098  d018              BEQ      |L20.204|
00009a  f5b35f80          CMP      r3,#0x1000
00009e  d010              BEQ      |L20.194|
0000a0  f5b35f00          CMP      r3,#0x2000
0000a4  d014              BEQ      |L20.208|
0000a6  f5b35f40          CMP      r3,#0x3000
0000aa  bf18              IT       NE
0000ac  2000              MOVNE    r0,#0
0000ae  d02e              BEQ      |L20.270|
                  |L20.176|
0000b0  4b3c              LDR      r3,|L20.420|
0000b2  781b              LDRB     r3,[r3,#0]  ; PPU_Reg
0000b4  f0130f04          TST      r3,#4
0000b8  bf14              ITE      NE
0000ba  3220              ADDNE    r2,r2,#0x20
0000bc  1c52              ADDEQ    r2,r2,#1
0000be  800a              STRH     r2,[r1,#0]
                  |L20.192|
0000c0  e044              B        |L20.332|
                  |L20.194|
0000c2  688b              LDR      r3,[r1,#8]  ; PPU_Mem
0000c4  f3c20c0b          UBFX     r12,r2,#0,#12
0000c8  f813300c          LDRB     r3,[r3,r12]
                  |L20.204|
0000cc  708b              STRB     r3,[r1,#2]
0000ce  e7ef              B        |L20.176|
                  |L20.208|
0000d0  f3c2030b          UBFX     r3,r2,#0,#12
0000d4  f5b36f40          CMP      r3,#0xc00
0000d8  bf84              ITT      HI
0000da  f8d1c018          LDRHI    r12,[r1,#0x18]  ; PPU_Mem
0000de  f5a36340          SUBHI    r3,r3,#0xc00
0000e2  d810              BHI      |L20.262|
0000e4  f5b36f00          CMP      r3,#0x800
0000e8  bf84              ITT      HI
0000ea  f8d1c014          LDRHI    r12,[r1,#0x14]  ; PPU_Mem
0000ee  f5a36300          SUBHI    r3,r3,#0x800
0000f2  d808              BHI      |L20.262|
0000f4  f5b36f80          CMP      r3,#0x400
0000f8  bf86              ITTE     HI
0000fa  f8d1c010          LDRHI    r12,[r1,#0x10]  ; PPU_Mem
0000fe  f5a36380          SUBHI    r3,r3,#0x400
000102  f8d1c00c          LDRLS    r12,[r1,#0xc]  ; PPU_Mem
                  |L20.262|
000106  f81c3003          LDRB     r3,[r12,r3]
00010a  e7df              B        |L20.204|
                  |L20.268|
00010c  e01d              B        |L20.330|
                  |L20.270|
00010e  f6437310          MOV      r3,#0x3f10
000112  429a              CMP      r2,r3
000114  d305              BCC      |L20.290|
000116  f002000f          AND      r0,r2,#0xf
00011a  4408              ADD      r0,r0,r1
00011c  f890002c          LDRB     r0,[r0,#0x2c]
000120  e7c6              B        |L20.176|
                  |L20.290|
000122  f5b25f7c          CMP      r2,#0x3f00
000126  d3c3              BCC      |L20.176|
000128  f002000f          AND      r0,r2,#0xf
00012c  4408              ADD      r0,r0,r1
00012e  7f00              LDRB     r0,[r0,#0x1c]
000130  e7be              B        |L20.176|
000132  f5a04180          SUB      r1,r0,#0x4000
000136  3916              SUBS     r1,r1,#0x16
000138  bf08              IT       EQ
00013a  2000              MOVEQ    r0,#0
00013c  d00e              BEQ      |L20.348|
00013e  f5a04180          SUB      r1,r0,#0x4000
000142  3917              SUBS     r1,r1,#0x17
000144  bf08              IT       EQ
000146  2001              MOVEQ    r0,#1
000148  d008              BEQ      |L20.348|
                  |L20.330|
00014a  0a00              LSRS     r0,r0,#8
                  |L20.332|
;;;126    	uint16_t savepc;
;;;127    	uint8_t value = cpu_getoperand();  
;;;128    	savepc = cpu_getmemory16(value);    
;;;129    	// savepc = cpu_getzeropage16(value);   
;;;130    
;;;131    	if (opcodeticks[opcode]==5)   
00014c  4913              LDR      r1,|L20.412|
00014e  4a1a              LDR      r2,|L20.440|
000150  79cb              LDRB     r3,[r1,#7]  ; opcode
000152  f8522023          LDR      r2,[r2,r3,LSL #2]
000156  2a05              CMP      r2,#5
000158  d11b              BNE      |L20.402|
00015a  e011              B        |L20.384|
                  |L20.348|
00015c  f7fffffe          BL       joypad_read
000160  e7f4              B        |L20.332|
000162  2000              MOVS     r0,#0
000164  e7f2              B        |L20.332|
000166  490d              LDR      r1,|L20.412|
000168  6b89              LDR      r1,[r1,#0x38]  ; prg_rombank0
00016a  4408              ADD      r0,r0,r1
00016c  f5a04000          SUB      r0,r0,#0x8000
000170  e004              B        |L20.380|
000172  490a              LDR      r1,|L20.412|
000174  6bc9              LDR      r1,[r1,#0x3c]  ; prg_rombank1
000176  4408              ADD      r0,r0,r1
000178  f5a04040          SUB      r0,r0,#0xc000
                  |L20.380|
00017c  8800              LDRH     r0,[r0,#0]
00017e  e7e5              B        |L20.332|
                  |L20.384|
;;;132    	if ((savepc>>8) != ((savepc+Y)>>8))   
000180  790b              LDRB     r3,[r1,#4]  ; Y
000182  0a02              LSRS     r2,r0,#8
000184  4403              ADD      r3,r3,r0
000186  ebb22f13          CMP      r2,r3,LSR #8
00018a  d002              BEQ      |L20.402|
;;;133    		cpu_clockticks++;   
00018c  6c0a              LDR      r2,[r1,#0x40]  ; cpu_clockticks
00018e  1c52              ADDS     r2,r2,#1
000190  640a              STR      r2,[r1,#0x40]  ; cpu_clockticks
                  |L20.402|
;;;134    	savepc += Y;   
000192  7909              LDRB     r1,[r1,#4]  ; Y
000194  4408              ADD      r0,r0,r1
000196  b280              UXTH     r0,r0
;;;135    	return savepc;
;;;136    }   
000198  bd00              POP      {pc}
;;;137    
                          ENDP

00019a  0000              DCW      0x0000
                  |L20.412|
                          DCD      ||.data||
                  |L20.416|
                          DCD      ||.bss||
                  |L20.420|
                          DCD      PPU_Reg
                  |L20.424|
                          DCD      PPU_Latch_Flag
                  |L20.428|
                          DCD      PPU_scanline
                  |L20.432|
                          DCD      Spr_Mem
                  |L20.436|
                          DCD      PPU_Mem
                  |L20.440|
                          DCD      ||.constdata||

                          AREA ||i.cpu_initmem||, CODE, READONLY, ALIGN=2

                  cpu_initmem PROC
;;;195    
;;;196    void cpu_initmem(const uint8_t* prg_rombank0ptr, uint8_t rom_num)          
000000  4a04              LDR      r2,|L21.20|
;;;197    {
;;;198    	prg_rombank0= prg_rombank0ptr;      /* prg-rom lower bank*/   
;;;199    	prg_rombank1= prg_rombank0ptr + (0x4000 * (rom_num - 1));       /* prg-rom upper bank*/   
000002  6390              STR      r0,[r2,#0x38]  ; prg_rombank0
000004  eb003081          ADD      r0,r0,r1,LSL #14
000008  f5a04080          SUB      r0,r0,#0x4000
;;;200    
;;;201    	cpu_clockticks = 0;   
00000c  63d0              STR      r0,[r2,#0x3c]  ; prg_rombank1
00000e  2000              MOVS     r0,#0
000010  6410              STR      r0,[r2,#0x40]  ; cpu_clockticks
;;;202    }
000012  4770              BX       lr
;;;203    #include "lcd_main.h"
                          ENDP

                  |L21.20|
                          DCD      ||.data||

                          AREA ||i.cpu_irq||, CODE, READONLY, ALIGN=2

                  cpu_irq PROC
;;;154    /* Maskerable Interrupt */   
;;;155    void cpu_irq(void)   
000000  480b              LDR      r0,|L22.48|
000002  4b0c              LDR      r3,|L22.52|
000004  7982              LDRB     r2,[r0,#6]  ; S
;;;156    {   
;;;157    	// cpu_putmemory(0x0100+S--,(uint8_t)(PC>>8));   
;;;158    	// cpu_putmemory(0x0100+S--,(uint8_t)(PC & 0xff));   
;;;159    	// cpu_putmemory(0x0100+S--,P);  
;;;160    	cpu_push16stack(PC);
000006  89c1              LDRH     r1,[r0,#0xe]  ; PC
000008  1e92              SUBS     r2,r2,#2
00000a  b2d2              UXTB     r2,r2
00000c  4413              ADD      r3,r3,r2
00000e  1e52              SUBS     r2,r2,#1
000010  f8a31101          STRH     r1,[r3,#0x101]
;;;161    	cpu_pushstack(P);
000014  7941              LDRB     r1,[r0,#5]  ; P
000016  f8831100          STRB     r1,[r3,#0x100]
00001a  7182              STRB     r2,[r0,#6]
;;;162    
;;;163    	P |= 0x04;     
00001c  f0410104          ORR      r1,r1,#4
000020  7141              STRB     r1,[r0,#5]
;;;164    
;;;165    	// PC = cpu_getmemory16(0xfffe);
;;;166    	PC = IRQ_VECTOR;
000022  6bc1              LDR      r1,[r0,#0x3c]  ; prg_rombank1
000024  f5015140          ADD      r1,r1,#0x3000
000028  f8b11ffe          LDRH     r1,[r1,#0xffe]
00002c  81c1              STRH     r1,[r0,#0xe]
;;;167    	// PC=cpu_getmemory(0xfffe);   
;;;168    	// PC |= cpu_getmemory(0xffff) << 8;   
;;;169    }
00002e  4770              BX       lr
;;;170    
                          ENDP

                  |L22.48|
                          DCD      ||.data||
                  |L22.52|
                          DCD      ||.bss||

                          AREA ||i.cpu_lda||, CODE, READONLY, ALIGN=2

                  cpu_lda PROC
;;;19     /* LDA - Load Accumulator */
;;;20     static inline void cpu_lda(CpuAdrMode adrmode)   
000000  b510              PUSH     {r4,lr}
;;;21     {   
;;;22     	uint16_t savepc = adrmode();   
000002  4780              BLX      r0
;;;23     	A = cpu_getmemory(savepc);   
000004  f7fffffe          BL       cpu_getmemory
000008  f01001ff          ANDS     r1,r0,#0xff
00000c  4809              LDR      r0,|L23.52|
00000e  7081              STRB     r1,[r0,#2]
;;;24     	SetFlag(Z_FLAG, A == 0x00);
000010  7942              LDRB     r2,[r0,#5]  ; P
000012  bf0c              ITE      EQ
000014  f0420202          ORREQ    r2,r2,#2
000018  f0220202          BICNE    r2,r2,#2
00001c  7142              STRB     r2,[r0,#5]
;;;25     	SetFlag(N_FLAG, A & 0x80); /* 0x80 is the MSB bit to indicate the value is negative */
00001e  f0110f80          TST      r1,#0x80
000022  b2d1              UXTB     r1,r2
000024  bf14              ITE      NE
000026  f0410180          ORRNE    r1,r1,#0x80
00002a  f0210180          BICEQ    r1,r1,#0x80
00002e  7141              STRB     r1,[r0,#5]
;;;26     }   
000030  bd10              POP      {r4,pc}
;;;27     
                          ENDP

000032  0000              DCW      0x0000
                  |L23.52|
                          DCD      ||.data||

                          AREA ||i.cpu_lsr||, CODE, READONLY, ALIGN=2

                  cpu_lsr PROC
;;;358    /* LSR - Logical Shift Right */
;;;359    static inline void cpu_lsr(CpuAdrMode adrmode)   
000000  e92d41f0          PUSH     {r4-r8,lr}
;;;360    {   
;;;361    	uint16_t savepc = adrmode();   
000004  4780              BLX      r0
000006  4604              MOV      r4,r0
;;;362    	uint16_t value = cpu_getmemory(savepc);   
000008  f7fffffe          BL       cpu_getmemory
00000c  f4044370          AND      r3,r4,#0xf000
;;;363    	value = value >> 1;
000010  f3c0054e          UBFX     r5,r0,#1,#15
;;;364    	cpu_putmemory(savepc,value & 0x00FF);   
000014  4620              MOV      r0,r4
000016  131e              ASRS     r6,r3,#12
000018  2100              MOVS     r1,#0
00001a  f8dfc29c          LDR      r12,|L24.696|
00001e  4ba7              LDR      r3,|L24.700|
000020  4ca7              LDR      r4,|L24.704|
000022  b2ea              UXTB     r2,r5
000024  2e05              CMP      r6,#5
000026  f0808129          BCS.W    |L24.636|
00002a  e8dff006          TBB      [pc,r6]
00002e  0303              DCB      0x03,0x03
000030  09099400          DCB      0x09,0x09,0x94,0x00
000034  f3c0000a          UBFX     r0,r0,#0,#11
000038  f80c2000          STRB     r2,[r12,r0]
00003c  f000b91e          B.W      |L24.636|
000040  f0000107          AND      r1,r0,#7
000044  4f9f              LDR      r7,|L24.708|
000046  48a0              LDR      r0,|L24.712|
000048  4ea0              LDR      r6,|L24.716|
00004a  2908              CMP      r1,#8
00004c  f0808116          BCS.W    |L24.636|
000050  e8dff001          TBB      [pc,r1]
000054  0407800a          DCB      0x04,0x07,0x80,0x0a
000058  0e182731          DCB      0x0e,0x18,0x27,0x31
00005c  703a              STRB     r2,[r7,#0]
00005e  f000b90d          B.W      |L24.636|
000062  707a              STRB     r2,[r7,#1]
000064  f000b90a          B.W      |L24.636|
000068  f8832100          STRB     r2,[r3,#0x100]
00006c  f000b906          B.W      |L24.636|
000070  f8930100          LDRB     r0,[r3,#0x100]  ; Spr_Mem
000074  541a              STRB     r2,[r3,r0]
000076  f8930100          LDRB     r0,[r3,#0x100]  ; Spr_Mem
00007a  1c40              ADDS     r0,r0,#1
00007c  f8830100          STRB     r0,[r3,#0x100]
000080  f000b8fc          B.W      |L24.636|
000084  7801              LDRB     r1,[r0,#0]  ; PPU_Latch_Flag
000086  2900              CMP      r1,#0
000088  bf08              IT       EQ
00008a  4b91              LDREQ    r3,|L24.720|
00008c  d003              BEQ      |L24.150|
00008e  2aef              CMP      r2,#0xef
000090  bf88              IT       HI
000092  2200              MOVHI    r2,#0
000094  4b8f              LDR      r3,|L24.724|
                  |L24.150|
000096  f0810101          EOR      r1,r1,#1
00009a  701a              STRB     r2,[r3,#0]
00009c  7001              STRB     r1,[r0,#0]
00009e  f000b8ed          B.W      |L24.636|
0000a2  7831              LDRB     r1,[r6,#0]  ; PPU_Mem
0000a4  eb022101          ADD      r1,r2,r1,LSL #8
0000a8  8031              STRH     r1,[r6,#0]
0000aa  7801              LDRB     r1,[r0,#0]  ; PPU_Latch_Flag
0000ac  f0810101          EOR      r1,r1,#1
0000b0  7001              STRB     r1,[r0,#0]
0000b2  f000b8e3          B.W      |L24.636|
0000b6  8830              LDRH     r0,[r6,#0]  ; PPU_Mem
0000b8  f4104170          ANDS     r1,r0,#0xf000
0000bc  bf18              IT       NE
0000be  f5b15f80          CMPNE    r1,#0x1000
0000c2  d03f              BEQ      |L24.324|
0000c4  f5b15f00          CMP      r1,#0x2000
0000c8  d003              BEQ      |L24.210|
0000ca  f5b15f40          CMP      r1,#0x3000
0000ce  d019              BEQ      |L24.260|
0000d0  e038              B        |L24.324|
                  |L24.210|
0000d2  f3c0000b          UBFX     r0,r0,#0,#12
0000d6  f5b06f40          CMP      r0,#0xc00
0000da  bf84              ITT      HI
0000dc  69b1              LDRHI    r1,[r6,#0x18]  ; PPU_Mem
0000de  f5a06040          SUBHI    r0,r0,#0xc00
0000e2  d80d              BHI      |L24.256|
0000e4  f5b06f00          CMP      r0,#0x800
0000e8  bf84              ITT      HI
0000ea  6971              LDRHI    r1,[r6,#0x14]  ; PPU_Mem
0000ec  f5a06000          SUBHI    r0,r0,#0x800
0000f0  d806              BHI      |L24.256|
0000f2  f5b06f80          CMP      r0,#0x400
0000f6  bf86              ITTE     HI
0000f8  6931              LDRHI    r1,[r6,#0x10]  ; PPU_Mem
0000fa  f5a06080          SUBHI    r0,r0,#0x400
0000fe  68f1              LDRLS    r1,[r6,#0xc]  ; PPU_Mem
                  |L24.256|
000100  540a              STRB     r2,[r1,r0]
000102  e01f              B        |L24.324|
                  |L24.260|
000104  f000011f          AND      r1,r0,#0x1f
000108  f000000f          AND      r0,r0,#0xf
00010c  290f              CMP      r1,#0xf
00010e  4430              ADD      r0,r0,r6
000110  d915              BLS      |L24.318|
000112  f880202c          STRB     r2,[r0,#0x2c]
000116  7830              LDRB     r0,[r6,#0]  ; PPU_Mem
000118  f0100f03          TST      r0,#3
00011c  d112              BNE      |L24.324|
00011e  7732              STRB     r2,[r6,#0x1c]
000120  f886202c          STRB     r2,[r6,#0x2c]
000124  f8862020          STRB     r2,[r6,#0x20]
000128  f8862030          STRB     r2,[r6,#0x30]
00012c  f8862024          STRB     r2,[r6,#0x24]
000130  f8862034          STRB     r2,[r6,#0x34]
000134  f8862028          STRB     r2,[r6,#0x28]
000138  f8862038          STRB     r2,[r6,#0x38]
00013c  e002              B        |L24.324|
                  |L24.318|
00013e  7702              STRB     r2,[r0,#0x1c]
000140  f7fffffe          BL       premap_palette
                  |L24.324|
000144  7838              LDRB     r0,[r7,#0]  ; PPU_Reg
000146  f0100f04          TST      r0,#4
00014a  8830              LDRH     r0,[r6,#0]  ; PPU_Mem
00014c  bf14              ITE      NE
00014e  3020              ADDNE    r0,r0,#0x20
000150  1c40              ADDEQ    r0,r0,#1
000152  8030              STRH     r0,[r6,#0]
000154  e092              B        |L24.636|
000156  f5a04680          SUB      r6,r0,#0x4000
00015a  3e14              SUBS     r6,r6,#0x14
00015c  d004              BEQ      |L24.360|
00015e  f5a04380          SUB      r3,r0,#0x4000
000162  3b16              SUBS     r3,r3,#0x16
000164  d03b              BEQ      |L24.478|
000166  e089              B        |L24.636|
                  |L24.360|
000168  6c20              LDR      r0,[r4,#0x40]  ; cpu_clockticks
00016a  2100              MOVS     r1,#0
00016c  f5a07000          SUB      r0,r0,#0x200
000170  6420              STR      r0,[r4,#0x40]  ; cpu_clockticks
000172  0910              LSRS     r0,r2,#4
000174  2810              CMP      r0,#0x10
000176  d217              BCS      |L24.424|
000178  e8dff000          TBB      [pc,r0]
00017c  08081616          DCB      0x08,0x08,0x16,0x16
000180  16168080          DCB      0x16,0x16,0x80,0x80
000184  0b0b0b0b          DCB      0x0b,0x0b,0x0b,0x0b
000188  11111111          DCB      0x11,0x11,0x11,0x11
00018c  eb0c2102          ADD      r1,r12,r2,LSL #8
000190  e00a              B        |L24.424|
000192  6ba0              LDR      r0,[r4,#0x38]  ; prg_rombank0
000194  eb002002          ADD      r0,r0,r2,LSL #8
000198  f5a04100          SUB      r1,r0,#0x8000
00019c  e004              B        |L24.424|
00019e  6be0              LDR      r0,[r4,#0x3c]  ; prg_rombank1
0001a0  eb002002          ADD      r0,r0,r2,LSL #8
0001a4  f5a04140          SUB      r1,r0,#0xc000
                  |L24.424|
0001a8  1a58              SUBS     r0,r3,r1
0001aa  2800              CMP      r0,#0
0001ac  dd04              BLE      |L24.440|
0001ae  f5b07f80          CMP      r0,#0x100
0001b2  bfb8              IT       LT
0001b4  2000              MOVLT    r0,#0
0001b6  db05              BLT      |L24.452|
                  |L24.440|
0001b8  f44f7280          MOV      r2,#0x100
0001bc  483f              LDR      r0,|L24.700|
0001be  f7fffffe          BL       __aeabi_memmove
0001c2  e05b              B        |L24.636|
                  |L24.452|
0001c4  5c0a              LDRB     r2,[r1,r0]
0001c6  541a              STRB     r2,[r3,r0]
0001c8  180a              ADDS     r2,r1,r0
0001ca  eb030c00          ADD      r12,r3,r0
0001ce  7852              LDRB     r2,[r2,#1]
0001d0  1c80              ADDS     r0,r0,#2
0001d2  f88c2001          STRB     r2,[r12,#1]
0001d6  f5b07f80          CMP      r0,#0x100
0001da  dbf3              BLT      |L24.452|
0001dc  e04e              B        |L24.636|
                  |L24.478|
0001de  2a00              CMP      r2,#0
0001e0  d04a              BEQ      |L24.632|
0001e2  483d              LDR      r0,|L24.728|
0001e4  7001              STRB     r1,[r0,#0]
0001e6  483d              LDR      r0,|L24.732|
0001e8  6900              LDR      r0,[r0,#0x10]
0001ea  43c0              MVNS     r0,r0
0001ec  b281              UXTH     r1,r0
0001ee  483c              LDR      r0,|L24.736|
0001f0  8803              LDRH     r3,[r0,#0]  ; joys
0001f2  f5b36f40          CMP      r3,#0xc00
0001f6  bf94              ITE      LS
0001f8  f04f0c00          MOVLS    r12,#0
0001fc  f04f0c01          MOVHI    r12,#1
000200  ea41410c          ORR      r1,r1,r12,LSL #16
000204  f5b36f80          CMP      r3,#0x400
000208  bf34              ITE      CC
00020a  2301              MOVCC    r3,#1
00020c  2300              MOVCS    r3,#0
00020e  ea414343          ORR      r3,r1,r3,LSL #17
000212  8841              LDRH     r1,[r0,#2]  ; joys
000214  f5b16f40          CMP      r1,#0xc00
000218  bf8c              ITE      HI
00021a  f04f0c01          MOVHI    r12,#1
00021e  f04f0c00          MOVLS    r12,#0
000222  ea43438c          ORR      r3,r3,r12,LSL #18
000226  f5b16f80          CMP      r1,#0x400
00022a  bf34              ITE      CC
00022c  2101              MOVCC    r1,#1
00022e  2100              MOVCS    r1,#0
000230  ea4341c1          ORR      r1,r3,r1,LSL #19
000234  88c3              LDRH     r3,[r0,#6]  ; joys
000236  f5b36f40          CMP      r3,#0xc00
00023a  bf8c              ITE      HI
00023c  f04f0c01          MOVHI    r12,#1
000240  f04f0c00          MOVLS    r12,#0
000244  ea41510c          ORR      r1,r1,r12,LSL #20
000248  f5b36f80          CMP      r3,#0x400
00024c  bf34              ITE      CC
00024e  2301              MOVCC    r3,#1
000250  2300              MOVCS    r3,#0
000252  ea415143          ORR      r1,r1,r3,LSL #21
000256  8883              LDRH     r3,[r0,#4]  ; joys
000258  f5b36f40          CMP      r3,#0xc00
00025c  bf8c              ITE      HI
00025e  2001              MOVHI    r0,#1
000260  2000              MOVLS    r0,#0
000262  ea415080          ORR      r0,r1,r0,LSL #22
000266  f5b36f80          CMP      r3,#0x400
00026a  bf34              ITE      CC
00026c  2101              MOVCC    r1,#1
00026e  2100              MOVCS    r1,#0
000270  ea4050c1          ORR      r0,r0,r1,LSL #23
000274  6160              STR      r0,[r4,#0x14]  ; joypad_state
000276  6160              STR      r0,[r4,#0x14]  ; joypad_state
                  |L24.632|
000278  481a              LDR      r0,|L24.740|
00027a  7002              STRB     r2,[r0,#0]
                  |L24.636|
;;;365        SetFlag(C_FLAG, value & 0x0001);
00027c  7960              LDRB     r0,[r4,#5]  ; P
00027e  f0150f01          TST      r5,#1
000282  bf14              ITE      NE
000284  f0400001          ORRNE    r0,r0,#1
000288  f0200001          BICEQ    r0,r0,#1
00028c  7160              STRB     r0,[r4,#5]
;;;366    	SetFlag(Z_FLAG, (value & 0x00FF) == 0x0000);
00028e  f0150fff          TST      r5,#0xff
000292  b2c0              UXTB     r0,r0
000294  bf0c              ITE      EQ
000296  f0400002          ORREQ    r0,r0,#2
00029a  f0200002          BICNE    r0,r0,#2
00029e  7160              STRB     r0,[r4,#5]
;;;367    	SetFlag(N_FLAG, value & 0x0080);  
0002a0  f0150f80          TST      r5,#0x80
0002a4  b2c0              UXTB     r0,r0
0002a6  bf14              ITE      NE
0002a8  f0400080          ORRNE    r0,r0,#0x80
0002ac  f0200080          BICEQ    r0,r0,#0x80
0002b0  7160              STRB     r0,[r4,#5]
;;;368    }   
0002b2  e8bd81f0          POP      {r4-r8,pc}
;;;369    
                          ENDP

0002b6  0000              DCW      0x0000
                  |L24.696|
                          DCD      ||.bss||
                  |L24.700|
                          DCD      Spr_Mem
                  |L24.704|
                          DCD      ||.data||
                  |L24.708|
                          DCD      PPU_Reg
                  |L24.712|
                          DCD      PPU_Latch_Flag
                  |L24.716|
                          DCD      PPU_Mem
                  |L24.720|
                          DCD      PPU_BG_HScrlOrg
                  |L24.724|
                          DCD      PPU_BG_VScrlOrg
                  |L24.728|
                          DCD      ||.data||+0x9
                  |L24.732|
                          DCD      0x40021000
                  |L24.736|
                          DCD      joys
                  |L24.740|
                          DCD      ||.data||+0xb

                          AREA ||i.cpu_nmi||, CODE, READONLY, ALIGN=2

                  cpu_nmi PROC
;;;137    /* Non maskerable interrupt */   
;;;138    void cpu_nmi(void)   
000000  480b              LDR      r0,|L25.48|
000002  4b0c              LDR      r3,|L25.52|
000004  7982              LDRB     r2,[r0,#6]  ; S
;;;139    {   
;;;140    	// cpu_putmemory(0x0100+S--,(uint8_t)(PC>>8));   
;;;141    	// cpu_putmemory(0x0100+S--,(uint8_t)(PC & 0xff));   
;;;142    	// cpu_putmemory(0x0100+S--,P);   
;;;143    	cpu_push16stack(PC);
000006  89c1              LDRH     r1,[r0,#0xe]  ; PC
000008  1e92              SUBS     r2,r2,#2
00000a  b2d2              UXTB     r2,r2
00000c  4413              ADD      r3,r3,r2
00000e  1e52              SUBS     r2,r2,#1
000010  f8a31101          STRH     r1,[r3,#0x101]
;;;144    	cpu_pushstack(P);
000014  7941              LDRB     r1,[r0,#5]  ; P
000016  f8831100          STRB     r1,[r3,#0x100]
00001a  7182              STRB     r2,[r0,#6]
;;;145    
;;;146    	P |= 0x04; 
00001c  f0410104          ORR      r1,r1,#4
000020  7141              STRB     r1,[r0,#5]
;;;147    
;;;148    	// PC = cpu_getmemory16(0xfffa);
;;;149    	PC = NMI_VECTOR;
000022  6bc1              LDR      r1,[r0,#0x3c]  ; prg_rombank1
000024  f5015140          ADD      r1,r1,#0x3000
000028  f8b11ffa          LDRH     r1,[r1,#0xffa]
00002c  81c1              STRH     r1,[r0,#0xe]
;;;150    	// PC=cpu_getmemory(0xfffa);   
;;;151    	// PC |= cpu_getmemory(0xfffb) << 8;   
;;;152    }   
00002e  4770              BX       lr
;;;153    
                          ENDP

                  |L25.48|
                          DCD      ||.data||
                  |L25.52|
                          DCD      ||.bss||

                          AREA ||i.cpu_ora||, CODE, READONLY, ALIGN=2

                  cpu_ora PROC
;;;170    /* ORA - Logical Inclusive OR */
;;;171    static inline void cpu_ora(CpuAdrMode adrmode)   
000000  b510              PUSH     {r4,lr}
;;;172    {   
;;;173    	uint16_t savepc = adrmode();   
000002  4780              BLX      r0
;;;174    	A |= cpu_getmemory(savepc);   
000004  f7fffffe          BL       cpu_getmemory
000008  490b              LDR      r1,|L26.56|
00000a  788a              LDRB     r2,[r1,#2]  ; A
00000c  4310              ORRS     r0,r0,r2
00000e  f01000ff          ANDS     r0,r0,#0xff
000012  7088              STRB     r0,[r1,#2]
;;;175    	SetFlag(Z_FLAG, A == 0x00);
000014  794a              LDRB     r2,[r1,#5]  ; P
000016  bf0c              ITE      EQ
000018  f0420202          ORREQ    r2,r2,#2
00001c  f0220202          BICNE    r2,r2,#2
000020  714a              STRB     r2,[r1,#5]
;;;176    	SetFlag(N_FLAG, A & 0x80);  /* 0x80 is the MSB bit to indicate the value is negative */ 
000022  f0100f80          TST      r0,#0x80
000026  b2d0              UXTB     r0,r2
000028  bf14              ITE      NE
00002a  f0400080          ORRNE    r0,r0,#0x80
00002e  f0200080          BICEQ    r0,r0,#0x80
000032  7148              STRB     r0,[r1,#5]
;;;177    }   
000034  bd10              POP      {r4,pc}
;;;178    
                          ENDP

000036  0000              DCW      0x0000
                  |L26.56|
                          DCD      ||.data||

                          AREA ||i.cpu_relative||, CODE, READONLY, ALIGN=2

                  cpu_relative PROC
;;;28     /* Branch */   
;;;29     static inline uint16_t cpu_relative(void)   
000000  490a              LDR      r1,|L27.44|
000002  89c8              LDRH     r0,[r1,#0xe]  ; PC
000004  1c40              ADDS     r0,r0,#1
000006  b282              UXTH     r2,r0
000008  81ca              STRH     r2,[r1,#0xe]
00000a  7a08              LDRB     r0,[r1,#8]  ; operand
;;;30     {     
;;;31     	uint16_t savepc;
;;;32       	savepc  = cpu_getoperand();  
;;;33     
;;;34       	if (savepc & 0x80) savepc -= 0x100;   
00000c  f0100f80          TST      r0,#0x80
000010  bf1c              ITT      NE
000012  f5a07080          SUBNE    r0,r0,#0x100
000016  b280              UXTHNE   r0,r0
;;;35       	if ((savepc>>8) != (PC>>8))   
000018  0a03              LSRS     r3,r0,#8
00001a  ebb32f12          CMP      r3,r2,LSR #8
;;;36       		cpu_clockticks++;   
;;;37     
;;;38      	return savepc;
;;;39     }   
00001e  bf08              IT       EQ
000020  4770              BXEQ     lr
000022  6c0a              LDR      r2,[r1,#0x40]         ;36  ; cpu_clockticks
000024  1c52              ADDS     r2,r2,#1              ;36
000026  640a              STR      r2,[r1,#0x40]         ;36  ; cpu_clockticks
000028  4770              BX       lr
;;;40     
                          ENDP

00002a  0000              DCW      0x0000
                  |L27.44|
                          DCD      ||.data||

                          AREA ||i.cpu_reset||, CODE, READONLY, ALIGN=2

                  cpu_reset PROC
;;;122    /* Reset CPU */   
;;;123    void cpu_reset(void)   
000000  4809              LDR      r0,|L28.40|
;;;124    {   
;;;125    	A = 0; X = 0; Y =0;
000002  2100              MOVS     r1,#0
;;;126    	P = R_FLAG | Z_FLAG;      
000004  2222              MOVS     r2,#0x22
000006  7081              STRB     r1,[r0,#2]            ;125
000008  70c1              STRB     r1,[r0,#3]            ;125
00000a  7101              STRB     r1,[r0,#4]            ;125
00000c  7142              STRB     r2,[r0,#5]
;;;127    	S=0xFF;      
00000e  22ff              MOVS     r2,#0xff
000010  7182              STRB     r2,[r0,#6]
;;;128    
;;;129    	PC = RST_VECTOR; 
000012  6bc2              LDR      r2,[r0,#0x3c]  ; prg_rombank1
000014  f5025240          ADD      r2,r2,#0x3000
000018  f8b22ffc          LDRH     r2,[r2,#0xffc]
00001c  81c2              STRH     r2,[r0,#0xe]
;;;130    
;;;131    	NMI_Flag = CLR0;   
00001e  7001              STRB     r1,[r0,#0]
;;;132    	IRQ_Flag = CLR0;   
000020  7041              STRB     r1,[r0,#1]
;;;133    
;;;134    	cpu_clockticks = 8;
000022  2108              MOVS     r1,#8
000024  6401              STR      r1,[r0,#0x40]  ; cpu_clockticks
;;;135    }   
000026  4770              BX       lr
;;;136    
                          ENDP

                  |L28.40|
                          DCD      ||.data||

                          AREA ||i.cpu_rol||, CODE, READONLY, ALIGN=2

                  cpu_rol PROC
;;;370    /* ROL - Rotate Left */
;;;371    static inline void cpu_rol(CpuAdrMode adrmode)   
000000  e92d41f0          PUSH     {r4-r8,lr}
;;;372    {   
;;;373    	uint16_t savepc = adrmode();   
000004  4780              BLX      r0
000006  4605              MOV      r5,r0
;;;374    	uint16_t value = cpu_getmemory(savepc);   
000008  f7fffffe          BL       cpu_getmemory
;;;375    	value = (uint16_t)(value << 1) | GetFlag(C_FLAG);
00000c  4cae              LDR      r4,|L29.712|
00000e  b280              UXTH     r0,r0                 ;374
000010  f64f71ff          MOV      r1,#0xffff
000014  ea010040          AND      r0,r1,r0,LSL #1
000018  7961              LDRB     r1,[r4,#5]  ; P
00001a  f4054370          AND      r3,r5,#0xf000
00001e  f0010101          AND      r1,r1,#1
000022  ea400601          ORR      r6,r0,r1
;;;376    	cpu_putmemory(savepc,value & 0x00FF);   
000026  4628              MOV      r0,r5
000028  131d              ASRS     r5,r3,#12
00002a  2100              MOVS     r1,#0
00002c  f8dfc29c          LDR      r12,|L29.716|
000030  4ba7              LDR      r3,|L29.720|
000032  b2f2              UXTB     r2,r6
000034  2d05              CMP      r5,#5
000036  f0808129          BCS.W    |L29.652|
00003a  e8dff005          TBB      [pc,r5]
00003e  0303              DCB      0x03,0x03
000040  09099400          DCB      0x09,0x09,0x94,0x00
000044  f3c0000a          UBFX     r0,r0,#0,#11
000048  f80c2000          STRB     r2,[r12,r0]
00004c  f000b91e          B.W      |L29.652|
000050  f0000107          AND      r1,r0,#7
000054  4f9f              LDR      r7,|L29.724|
000056  48a0              LDR      r0,|L29.728|
000058  4da0              LDR      r5,|L29.732|
00005a  2908              CMP      r1,#8
00005c  f0808116          BCS.W    |L29.652|
000060  e8dff001          TBB      [pc,r1]
000064  0407800a          DCB      0x04,0x07,0x80,0x0a
000068  0e182731          DCB      0x0e,0x18,0x27,0x31
00006c  703a              STRB     r2,[r7,#0]
00006e  f000b90d          B.W      |L29.652|
000072  707a              STRB     r2,[r7,#1]
000074  f000b90a          B.W      |L29.652|
000078  f8832100          STRB     r2,[r3,#0x100]
00007c  f000b906          B.W      |L29.652|
000080  f8930100          LDRB     r0,[r3,#0x100]  ; Spr_Mem
000084  541a              STRB     r2,[r3,r0]
000086  f8930100          LDRB     r0,[r3,#0x100]  ; Spr_Mem
00008a  1c40              ADDS     r0,r0,#1
00008c  f8830100          STRB     r0,[r3,#0x100]
000090  f000b8fc          B.W      |L29.652|
000094  7801              LDRB     r1,[r0,#0]  ; PPU_Latch_Flag
000096  2900              CMP      r1,#0
000098  bf08              IT       EQ
00009a  4b91              LDREQ    r3,|L29.736|
00009c  d003              BEQ      |L29.166|
00009e  2aef              CMP      r2,#0xef
0000a0  bf88              IT       HI
0000a2  2200              MOVHI    r2,#0
0000a4  4b8f              LDR      r3,|L29.740|
                  |L29.166|
0000a6  f0810101          EOR      r1,r1,#1
0000aa  701a              STRB     r2,[r3,#0]
0000ac  7001              STRB     r1,[r0,#0]
0000ae  f000b8ed          B.W      |L29.652|
0000b2  7829              LDRB     r1,[r5,#0]  ; PPU_Mem
0000b4  eb022101          ADD      r1,r2,r1,LSL #8
0000b8  8029              STRH     r1,[r5,#0]
0000ba  7801              LDRB     r1,[r0,#0]  ; PPU_Latch_Flag
0000bc  f0810101          EOR      r1,r1,#1
0000c0  7001              STRB     r1,[r0,#0]
0000c2  f000b8e3          B.W      |L29.652|
0000c6  8828              LDRH     r0,[r5,#0]  ; PPU_Mem
0000c8  f4104170          ANDS     r1,r0,#0xf000
0000cc  bf18              IT       NE
0000ce  f5b15f80          CMPNE    r1,#0x1000
0000d2  d03f              BEQ      |L29.340|
0000d4  f5b15f00          CMP      r1,#0x2000
0000d8  d003              BEQ      |L29.226|
0000da  f5b15f40          CMP      r1,#0x3000
0000de  d019              BEQ      |L29.276|
0000e0  e038              B        |L29.340|
                  |L29.226|
0000e2  f3c0000b          UBFX     r0,r0,#0,#12
0000e6  f5b06f40          CMP      r0,#0xc00
0000ea  bf84              ITT      HI
0000ec  69a9              LDRHI    r1,[r5,#0x18]  ; PPU_Mem
0000ee  f5a06040          SUBHI    r0,r0,#0xc00
0000f2  d80d              BHI      |L29.272|
0000f4  f5b06f00          CMP      r0,#0x800
0000f8  bf84              ITT      HI
0000fa  6969              LDRHI    r1,[r5,#0x14]  ; PPU_Mem
0000fc  f5a06000          SUBHI    r0,r0,#0x800
000100  d806              BHI      |L29.272|
000102  f5b06f80          CMP      r0,#0x400
000106  bf86              ITTE     HI
000108  6929              LDRHI    r1,[r5,#0x10]  ; PPU_Mem
00010a  f5a06080          SUBHI    r0,r0,#0x400
00010e  68e9              LDRLS    r1,[r5,#0xc]  ; PPU_Mem
                  |L29.272|
000110  540a              STRB     r2,[r1,r0]
000112  e01f              B        |L29.340|
                  |L29.276|
000114  f000011f          AND      r1,r0,#0x1f
000118  f000000f          AND      r0,r0,#0xf
00011c  290f              CMP      r1,#0xf
00011e  4428              ADD      r0,r0,r5
000120  d915              BLS      |L29.334|
000122  f880202c          STRB     r2,[r0,#0x2c]
000126  7828              LDRB     r0,[r5,#0]  ; PPU_Mem
000128  f0100f03          TST      r0,#3
00012c  d112              BNE      |L29.340|
00012e  772a              STRB     r2,[r5,#0x1c]
000130  f885202c          STRB     r2,[r5,#0x2c]
000134  f8852020          STRB     r2,[r5,#0x20]
000138  f8852030          STRB     r2,[r5,#0x30]
00013c  f8852024          STRB     r2,[r5,#0x24]
000140  f8852034          STRB     r2,[r5,#0x34]
000144  f8852028          STRB     r2,[r5,#0x28]
000148  f8852038          STRB     r2,[r5,#0x38]
00014c  e002              B        |L29.340|
                  |L29.334|
00014e  7702              STRB     r2,[r0,#0x1c]
000150  f7fffffe          BL       premap_palette
                  |L29.340|
000154  7838              LDRB     r0,[r7,#0]  ; PPU_Reg
000156  f0100f04          TST      r0,#4
00015a  8828              LDRH     r0,[r5,#0]  ; PPU_Mem
00015c  bf14              ITE      NE
00015e  3020              ADDNE    r0,r0,#0x20
000160  1c40              ADDEQ    r0,r0,#1
000162  8028              STRH     r0,[r5,#0]
000164  e092              B        |L29.652|
000166  f5a04580          SUB      r5,r0,#0x4000
00016a  3d14              SUBS     r5,r5,#0x14
00016c  d004              BEQ      |L29.376|
00016e  f5a04380          SUB      r3,r0,#0x4000
000172  3b16              SUBS     r3,r3,#0x16
000174  d03b              BEQ      |L29.494|
000176  e089              B        |L29.652|
                  |L29.376|
000178  6c20              LDR      r0,[r4,#0x40]  ; cpu_clockticks
00017a  2100              MOVS     r1,#0
00017c  f5a07000          SUB      r0,r0,#0x200
000180  6420              STR      r0,[r4,#0x40]  ; cpu_clockticks
000182  0910              LSRS     r0,r2,#4
000184  2810              CMP      r0,#0x10
000186  d217              BCS      |L29.440|
000188  e8dff000          TBB      [pc,r0]
00018c  08081616          DCB      0x08,0x08,0x16,0x16
000190  16168080          DCB      0x16,0x16,0x80,0x80
000194  0b0b0b0b          DCB      0x0b,0x0b,0x0b,0x0b
000198  11111111          DCB      0x11,0x11,0x11,0x11
00019c  eb0c2102          ADD      r1,r12,r2,LSL #8
0001a0  e00a              B        |L29.440|
0001a2  6ba0              LDR      r0,[r4,#0x38]  ; prg_rombank0
0001a4  eb002002          ADD      r0,r0,r2,LSL #8
0001a8  f5a04100          SUB      r1,r0,#0x8000
0001ac  e004              B        |L29.440|
0001ae  6be0              LDR      r0,[r4,#0x3c]  ; prg_rombank1
0001b0  eb002002          ADD      r0,r0,r2,LSL #8
0001b4  f5a04140          SUB      r1,r0,#0xc000
                  |L29.440|
0001b8  1a58              SUBS     r0,r3,r1
0001ba  2800              CMP      r0,#0
0001bc  dd04              BLE      |L29.456|
0001be  f5b07f80          CMP      r0,#0x100
0001c2  bfb8              IT       LT
0001c4  2000              MOVLT    r0,#0
0001c6  db05              BLT      |L29.468|
                  |L29.456|
0001c8  f44f7280          MOV      r2,#0x100
0001cc  4840              LDR      r0,|L29.720|
0001ce  f7fffffe          BL       __aeabi_memmove
0001d2  e05b              B        |L29.652|
                  |L29.468|
0001d4  5c0a              LDRB     r2,[r1,r0]
0001d6  541a              STRB     r2,[r3,r0]
0001d8  180a              ADDS     r2,r1,r0
0001da  f892c001          LDRB     r12,[r2,#1]
0001de  181a              ADDS     r2,r3,r0
0001e0  1c80              ADDS     r0,r0,#2
0001e2  f882c001          STRB     r12,[r2,#1]
0001e6  f5b07f80          CMP      r0,#0x100
0001ea  dbf3              BLT      |L29.468|
0001ec  e04e              B        |L29.652|
                  |L29.494|
0001ee  2a00              CMP      r2,#0
0001f0  d04a              BEQ      |L29.648|
0001f2  483d              LDR      r0,|L29.744|
0001f4  7001              STRB     r1,[r0,#0]
0001f6  483d              LDR      r0,|L29.748|
0001f8  6900              LDR      r0,[r0,#0x10]
0001fa  43c0              MVNS     r0,r0
0001fc  b283              UXTH     r3,r0
0001fe  483c              LDR      r0,|L29.752|
000200  8801              LDRH     r1,[r0,#0]  ; joys
000202  f5b16f40          CMP      r1,#0xc00
000206  bf94              ITE      LS
000208  f04f0c00          MOVLS    r12,#0
00020c  f04f0c01          MOVHI    r12,#1
000210  ea43430c          ORR      r3,r3,r12,LSL #16
000214  f5b16f80          CMP      r1,#0x400
000218  bf34              ITE      CC
00021a  2101              MOVCC    r1,#1
00021c  2100              MOVCS    r1,#0
00021e  ea434341          ORR      r3,r3,r1,LSL #17
000222  8841              LDRH     r1,[r0,#2]  ; joys
000224  f5b16f40          CMP      r1,#0xc00
000228  bf8c              ITE      HI
00022a  f04f0c01          MOVHI    r12,#1
00022e  f04f0c00          MOVLS    r12,#0
000232  ea43438c          ORR      r3,r3,r12,LSL #18
000236  f5b16f80          CMP      r1,#0x400
00023a  bf34              ITE      CC
00023c  2101              MOVCC    r1,#1
00023e  2100              MOVCS    r1,#0
000240  ea4343c1          ORR      r3,r3,r1,LSL #19
000244  88c1              LDRH     r1,[r0,#6]  ; joys
000246  f5b16f40          CMP      r1,#0xc00
00024a  bf8c              ITE      HI
00024c  f04f0c01          MOVHI    r12,#1
000250  f04f0c00          MOVLS    r12,#0
000254  ea43530c          ORR      r3,r3,r12,LSL #20
000258  f5b16f80          CMP      r1,#0x400
00025c  bf34              ITE      CC
00025e  2101              MOVCC    r1,#1
000260  2100              MOVCS    r1,#0
000262  ea435141          ORR      r1,r3,r1,LSL #21
000266  8883              LDRH     r3,[r0,#4]  ; joys
000268  f5b36f40          CMP      r3,#0xc00
00026c  bf8c              ITE      HI
00026e  2001              MOVHI    r0,#1
000270  2000              MOVLS    r0,#0
000272  ea415080          ORR      r0,r1,r0,LSL #22
000276  f5b36f80          CMP      r3,#0x400
00027a  bf34              ITE      CC
00027c  2101              MOVCC    r1,#1
00027e  2100              MOVCS    r1,#0
000280  ea4050c1          ORR      r0,r0,r1,LSL #23
000284  6160              STR      r0,[r4,#0x14]  ; joypad_state
000286  6160              STR      r0,[r4,#0x14]  ; joypad_state
                  |L29.648|
000288  481a              LDR      r0,|L29.756|
00028a  7002              STRB     r2,[r0,#0]
                  |L29.652|
;;;377    	SetFlag(C_FLAG, value & 0xFF00);
00028c  7960              LDRB     r0,[r4,#5]  ; P
00028e  f4164f7f          TST      r6,#0xff00
000292  bf14              ITE      NE
000294  f0400001          ORRNE    r0,r0,#1
000298  f0200001          BICEQ    r0,r0,#1
00029c  7160              STRB     r0,[r4,#5]
;;;378    	SetFlag(Z_FLAG, (value & 0x00FF) == 0x0000);
00029e  f0160fff          TST      r6,#0xff
0002a2  b2c0              UXTB     r0,r0
0002a4  bf0c              ITE      EQ
0002a6  f0400002          ORREQ    r0,r0,#2
0002aa  f0200002          BICNE    r0,r0,#2
0002ae  7160              STRB     r0,[r4,#5]
;;;379    	SetFlag(N_FLAG, value & 0x0080);  
0002b0  f0160f80          TST      r6,#0x80
0002b4  b2c0              UXTB     r0,r0
0002b6  bf14              ITE      NE
0002b8  f0400080          ORRNE    r0,r0,#0x80
0002bc  f0200080          BICEQ    r0,r0,#0x80
0002c0  7160              STRB     r0,[r4,#5]
;;;380    }   
0002c2  e8bd81f0          POP      {r4-r8,pc}
;;;381    
                          ENDP

0002c6  0000              DCW      0x0000
                  |L29.712|
                          DCD      ||.data||
                  |L29.716|
                          DCD      ||.bss||
                  |L29.720|
                          DCD      Spr_Mem
                  |L29.724|
                          DCD      PPU_Reg
                  |L29.728|
                          DCD      PPU_Latch_Flag
                  |L29.732|
                          DCD      PPU_Mem
                  |L29.736|
                          DCD      PPU_BG_HScrlOrg
                  |L29.740|
                          DCD      PPU_BG_VScrlOrg
                  |L29.744|
                          DCD      ||.data||+0x9
                  |L29.748|
                          DCD      0x40021000
                  |L29.752|
                          DCD      joys
                  |L29.756|
                          DCD      ||.data||+0xb

                          AREA ||i.cpu_ror||, CODE, READONLY, ALIGN=2

                  cpu_ror PROC
;;;382    /* ROR - Rotate Right */
;;;383    static inline void cpu_ror(CpuAdrMode adrmode)   
000000  e92d41f0          PUSH     {r4-r8,lr}
;;;384    {   
;;;385    	uint16_t savepc = adrmode();   
000004  4780              BLX      r0
000006  4604              MOV      r4,r0
;;;386    	uint16_t value = cpu_getmemory(savepc);   
000008  f7fffffe          BL       cpu_getmemory
;;;387    	value = (uint16_t)GetFlag(C_FLAG) << 7 | (value >> 1);
00000c  4dac              LDR      r5,|L30.704|
00000e  b280              UXTH     r0,r0                 ;386
000010  f4044370          AND      r3,r4,#0xf000         ;386
000014  7969              LDRB     r1,[r5,#5]  ; P
000016  f8dfc2ac          LDR      r12,|L30.708|
00001a  07c9              LSLS     r1,r1,#31
00001c  0e09              LSRS     r1,r1,#24
00001e  ea410650          ORR      r6,r1,r0,LSR #1
;;;388    	cpu_putmemory(savepc,value & 0x00FF);   
000022  4620              MOV      r0,r4
000024  131c              ASRS     r4,r3,#12
000026  2100              MOVS     r1,#0
000028  4ba7              LDR      r3,|L30.712|
00002a  b2f2              UXTB     r2,r6
00002c  2c05              CMP      r4,#5
00002e  f0808129          BCS.W    |L30.644|
000032  e8dff004          TBB      [pc,r4]
000036  0303              DCB      0x03,0x03
000038  09099400          DCB      0x09,0x09,0x94,0x00
00003c  f3c0000a          UBFX     r0,r0,#0,#11
000040  f80c2000          STRB     r2,[r12,r0]
000044  f000b91e          B.W      |L30.644|
000048  f0000107          AND      r1,r0,#7
00004c  4f9f              LDR      r7,|L30.716|
00004e  48a0              LDR      r0,|L30.720|
000050  4ca0              LDR      r4,|L30.724|
000052  2908              CMP      r1,#8
000054  f0808116          BCS.W    |L30.644|
000058  e8dff001          TBB      [pc,r1]
00005c  0407800a          DCB      0x04,0x07,0x80,0x0a
000060  0e182731          DCB      0x0e,0x18,0x27,0x31
000064  703a              STRB     r2,[r7,#0]
000066  f000b90d          B.W      |L30.644|
00006a  707a              STRB     r2,[r7,#1]
00006c  f000b90a          B.W      |L30.644|
000070  f8832100          STRB     r2,[r3,#0x100]
000074  f000b906          B.W      |L30.644|
000078  f8930100          LDRB     r0,[r3,#0x100]  ; Spr_Mem
00007c  541a              STRB     r2,[r3,r0]
00007e  f8930100          LDRB     r0,[r3,#0x100]  ; Spr_Mem
000082  1c40              ADDS     r0,r0,#1
000084  f8830100          STRB     r0,[r3,#0x100]
000088  f000b8fc          B.W      |L30.644|
00008c  7801              LDRB     r1,[r0,#0]  ; PPU_Latch_Flag
00008e  2900              CMP      r1,#0
000090  bf08              IT       EQ
000092  4b91              LDREQ    r3,|L30.728|
000094  d003              BEQ      |L30.158|
000096  2aef              CMP      r2,#0xef
000098  bf88              IT       HI
00009a  2200              MOVHI    r2,#0
00009c  4b8f              LDR      r3,|L30.732|
                  |L30.158|
00009e  f0810101          EOR      r1,r1,#1
0000a2  701a              STRB     r2,[r3,#0]
0000a4  7001              STRB     r1,[r0,#0]
0000a6  f000b8ed          B.W      |L30.644|
0000aa  7821              LDRB     r1,[r4,#0]  ; PPU_Mem
0000ac  eb022101          ADD      r1,r2,r1,LSL #8
0000b0  8021              STRH     r1,[r4,#0]
0000b2  7801              LDRB     r1,[r0,#0]  ; PPU_Latch_Flag
0000b4  f0810101          EOR      r1,r1,#1
0000b8  7001              STRB     r1,[r0,#0]
0000ba  f000b8e3          B.W      |L30.644|
0000be  8820              LDRH     r0,[r4,#0]  ; PPU_Mem
0000c0  f4104170          ANDS     r1,r0,#0xf000
0000c4  bf18              IT       NE
0000c6  f5b15f80          CMPNE    r1,#0x1000
0000ca  d03f              BEQ      |L30.332|
0000cc  f5b15f00          CMP      r1,#0x2000
0000d0  d003              BEQ      |L30.218|
0000d2  f5b15f40          CMP      r1,#0x3000
0000d6  d019              BEQ      |L30.268|
0000d8  e038              B        |L30.332|
                  |L30.218|
0000da  f3c0000b          UBFX     r0,r0,#0,#12
0000de  f5b06f40          CMP      r0,#0xc00
0000e2  bf84              ITT      HI
0000e4  69a1              LDRHI    r1,[r4,#0x18]  ; PPU_Mem
0000e6  f5a06040          SUBHI    r0,r0,#0xc00
0000ea  d80d              BHI      |L30.264|
0000ec  f5b06f00          CMP      r0,#0x800
0000f0  bf84              ITT      HI
0000f2  6961              LDRHI    r1,[r4,#0x14]  ; PPU_Mem
0000f4  f5a06000          SUBHI    r0,r0,#0x800
0000f8  d806              BHI      |L30.264|
0000fa  f5b06f80          CMP      r0,#0x400
0000fe  bf86              ITTE     HI
000100  6921              LDRHI    r1,[r4,#0x10]  ; PPU_Mem
000102  f5a06080          SUBHI    r0,r0,#0x400
000106  68e1              LDRLS    r1,[r4,#0xc]  ; PPU_Mem
                  |L30.264|
000108  540a              STRB     r2,[r1,r0]
00010a  e01f              B        |L30.332|
                  |L30.268|
00010c  f000011f          AND      r1,r0,#0x1f
000110  f000000f          AND      r0,r0,#0xf
000114  290f              CMP      r1,#0xf
000116  4420              ADD      r0,r0,r4
000118  d915              BLS      |L30.326|
00011a  f880202c          STRB     r2,[r0,#0x2c]
00011e  7820              LDRB     r0,[r4,#0]  ; PPU_Mem
000120  f0100f03          TST      r0,#3
000124  d112              BNE      |L30.332|
000126  7722              STRB     r2,[r4,#0x1c]
000128  f884202c          STRB     r2,[r4,#0x2c]
00012c  f8842020          STRB     r2,[r4,#0x20]
000130  f8842030          STRB     r2,[r4,#0x30]
000134  f8842024          STRB     r2,[r4,#0x24]
000138  f8842034          STRB     r2,[r4,#0x34]
00013c  f8842028          STRB     r2,[r4,#0x28]
000140  f8842038          STRB     r2,[r4,#0x38]
000144  e002              B        |L30.332|
                  |L30.326|
000146  7702              STRB     r2,[r0,#0x1c]
000148  f7fffffe          BL       premap_palette
                  |L30.332|
00014c  7838              LDRB     r0,[r7,#0]  ; PPU_Reg
00014e  f0100f04          TST      r0,#4
000152  8820              LDRH     r0,[r4,#0]  ; PPU_Mem
000154  bf14              ITE      NE
000156  3020              ADDNE    r0,r0,#0x20
000158  1c40              ADDEQ    r0,r0,#1
00015a  8020              STRH     r0,[r4,#0]
00015c  e092              B        |L30.644|
00015e  f5a04480          SUB      r4,r0,#0x4000
000162  3c14              SUBS     r4,r4,#0x14
000164  d004              BEQ      |L30.368|
000166  f5a04380          SUB      r3,r0,#0x4000
00016a  3b16              SUBS     r3,r3,#0x16
00016c  d03b              BEQ      |L30.486|
00016e  e089              B        |L30.644|
                  |L30.368|
000170  6c28              LDR      r0,[r5,#0x40]  ; cpu_clockticks
000172  2100              MOVS     r1,#0
000174  f5a07000          SUB      r0,r0,#0x200
000178  6428              STR      r0,[r5,#0x40]  ; cpu_clockticks
00017a  0910              LSRS     r0,r2,#4
00017c  2810              CMP      r0,#0x10
00017e  d217              BCS      |L30.432|
000180  e8dff000          TBB      [pc,r0]
000184  08081616          DCB      0x08,0x08,0x16,0x16
000188  16168080          DCB      0x16,0x16,0x80,0x80
00018c  0b0b0b0b          DCB      0x0b,0x0b,0x0b,0x0b
000190  11111111          DCB      0x11,0x11,0x11,0x11
000194  eb0c2102          ADD      r1,r12,r2,LSL #8
000198  e00a              B        |L30.432|
00019a  6ba8              LDR      r0,[r5,#0x38]  ; prg_rombank0
00019c  eb002002          ADD      r0,r0,r2,LSL #8
0001a0  f5a04100          SUB      r1,r0,#0x8000
0001a4  e004              B        |L30.432|
0001a6  6be8              LDR      r0,[r5,#0x3c]  ; prg_rombank1
0001a8  eb002002          ADD      r0,r0,r2,LSL #8
0001ac  f5a04140          SUB      r1,r0,#0xc000
                  |L30.432|
0001b0  1a58              SUBS     r0,r3,r1
0001b2  2800              CMP      r0,#0
0001b4  dd04              BLE      |L30.448|
0001b6  f5b07f80          CMP      r0,#0x100
0001ba  bfb8              IT       LT
0001bc  2000              MOVLT    r0,#0
0001be  db05              BLT      |L30.460|
                  |L30.448|
0001c0  f44f7280          MOV      r2,#0x100
0001c4  4840              LDR      r0,|L30.712|
0001c6  f7fffffe          BL       __aeabi_memmove
0001ca  e05b              B        |L30.644|
                  |L30.460|
0001cc  5c0a              LDRB     r2,[r1,r0]
0001ce  541a              STRB     r2,[r3,r0]
0001d0  180a              ADDS     r2,r1,r0
0001d2  f892c001          LDRB     r12,[r2,#1]
0001d6  181a              ADDS     r2,r3,r0
0001d8  1c80              ADDS     r0,r0,#2
0001da  f882c001          STRB     r12,[r2,#1]
0001de  f5b07f80          CMP      r0,#0x100
0001e2  dbf3              BLT      |L30.460|
0001e4  e04e              B        |L30.644|
                  |L30.486|
0001e6  2a00              CMP      r2,#0
0001e8  d04a              BEQ      |L30.640|
0001ea  483d              LDR      r0,|L30.736|
0001ec  7001              STRB     r1,[r0,#0]
0001ee  483d              LDR      r0,|L30.740|
0001f0  6900              LDR      r0,[r0,#0x10]
0001f2  43c0              MVNS     r0,r0
0001f4  b281              UXTH     r1,r0
0001f6  483c              LDR      r0,|L30.744|
0001f8  8803              LDRH     r3,[r0,#0]  ; joys
0001fa  f5b36f40          CMP      r3,#0xc00
0001fe  bf94              ITE      LS
000200  f04f0c00          MOVLS    r12,#0
000204  f04f0c01          MOVHI    r12,#1
000208  ea41410c          ORR      r1,r1,r12,LSL #16
00020c  f5b36f80          CMP      r3,#0x400
000210  bf34              ITE      CC
000212  2301              MOVCC    r3,#1
000214  2300              MOVCS    r3,#0
000216  ea414343          ORR      r3,r1,r3,LSL #17
00021a  8841              LDRH     r1,[r0,#2]  ; joys
00021c  f5b16f40          CMP      r1,#0xc00
000220  bf8c              ITE      HI
000222  f04f0c01          MOVHI    r12,#1
000226  f04f0c00          MOVLS    r12,#0
00022a  ea43438c          ORR      r3,r3,r12,LSL #18
00022e  f5b16f80          CMP      r1,#0x400
000232  bf34              ITE      CC
000234  2101              MOVCC    r1,#1
000236  2100              MOVCS    r1,#0
000238  ea4343c1          ORR      r3,r3,r1,LSL #19
00023c  88c1              LDRH     r1,[r0,#6]  ; joys
00023e  f5b16f40          CMP      r1,#0xc00
000242  bf8c              ITE      HI
000244  f04f0c01          MOVHI    r12,#1
000248  f04f0c00          MOVLS    r12,#0
00024c  ea43530c          ORR      r3,r3,r12,LSL #20
000250  f5b16f80          CMP      r1,#0x400
000254  bf34              ITE      CC
000256  2101              MOVCC    r1,#1
000258  2100              MOVCS    r1,#0
00025a  ea435141          ORR      r1,r3,r1,LSL #21
00025e  8880              LDRH     r0,[r0,#4]  ; joys
000260  f5b06f40          CMP      r0,#0xc00
000264  bf8c              ITE      HI
000266  2301              MOVHI    r3,#1
000268  2300              MOVLS    r3,#0
00026a  ea415183          ORR      r1,r1,r3,LSL #22
00026e  f5b06f80          CMP      r0,#0x400
000272  bf34              ITE      CC
000274  2001              MOVCC    r0,#1
000276  2000              MOVCS    r0,#0
000278  ea4150c0          ORR      r0,r1,r0,LSL #23
00027c  6168              STR      r0,[r5,#0x14]  ; joypad_state
00027e  6168              STR      r0,[r5,#0x14]  ; joypad_state
                  |L30.640|
000280  481a              LDR      r0,|L30.748|
000282  7002              STRB     r2,[r0,#0]
                  |L30.644|
;;;389    	SetFlag(C_FLAG, value & 0x01);
000284  7968              LDRB     r0,[r5,#5]  ; P
000286  f0160f01          TST      r6,#1
00028a  bf14              ITE      NE
00028c  f0400001          ORRNE    r0,r0,#1
000290  f0200001          BICEQ    r0,r0,#1
000294  7168              STRB     r0,[r5,#5]
;;;390    	SetFlag(Z_FLAG, (value & 0x00FF) == 0x0000);
000296  f0160fff          TST      r6,#0xff
00029a  b2c0              UXTB     r0,r0
00029c  bf0c              ITE      EQ
00029e  f0400002          ORREQ    r0,r0,#2
0002a2  f0200002          BICNE    r0,r0,#2
0002a6  7168              STRB     r0,[r5,#5]
;;;391    	SetFlag(N_FLAG, value & 0x0080);  
0002a8  f0160f80          TST      r6,#0x80
0002ac  b2c0              UXTB     r0,r0
0002ae  bf14              ITE      NE
0002b0  f0400080          ORRNE    r0,r0,#0x80
0002b4  f0200080          BICEQ    r0,r0,#0x80
0002b8  7168              STRB     r0,[r5,#5]
;;;392    }   
0002ba  e8bd81f0          POP      {r4-r8,pc}
;;;393    
                          ENDP

0002be  0000              DCW      0x0000
                  |L30.704|
                          DCD      ||.data||
                  |L30.708|
                          DCD      ||.bss||
                  |L30.712|
                          DCD      Spr_Mem
                  |L30.716|
                          DCD      PPU_Reg
                  |L30.720|
                          DCD      PPU_Latch_Flag
                  |L30.724|
                          DCD      PPU_Mem
                  |L30.728|
                          DCD      PPU_BG_HScrlOrg
                  |L30.732|
                          DCD      PPU_BG_VScrlOrg
                  |L30.736|
                          DCD      ||.data||+0x9
                  |L30.740|
                          DCD      0x40021000
                  |L30.744|
                          DCD      joys
                  |L30.748|
                          DCD      ||.data||+0xb

                          AREA ||i.cpu_sbc||, CODE, READONLY, ALIGN=2

                  cpu_sbc PROC
;;;222    /* SBC - Subtract with Carry */
;;;223    static inline void cpu_sbc(CpuAdrMode adrmode)   
000000  b510              PUSH     {r4,lr}
;;;224    {   
;;;225    	uint16_t savepc = /*opcodetable[opcode].*/adrmode();   
000002  4780              BLX      r0
;;;226    	uint16_t value = cpu_getmemory(savepc) ^ 0xFF;   
000004  f7fffffe          BL       cpu_getmemory
000008  f08000ff          EOR      r0,r0,#0xff
00000c  b282              UXTH     r2,r0
;;;227        uint16_t temp = (uint16_t)A + (uint16_t)value + (uint16_t)GetFlag(C_FLAG);
00000e  4819              LDR      r0,|L31.116|
000010  f890c002          LDRB     r12,[r0,#2]  ; A
000014  7943              LDRB     r3,[r0,#5]  ; P
000016  eb0c0102          ADD      r1,r12,r2
00001a  f0030401          AND      r4,r3,#1
00001e  4421              ADD      r1,r1,r4
000020  b289              UXTH     r1,r1
;;;228    
;;;229    	/* If there is a bit in the upper 8bit, set C_FLAG */
;;;230    	SetFlag(C_FLAG, temp & 0xFF00);
000022  f4114f7f          TST      r1,#0xff00
000026  bf14              ITE      NE
000028  f0430301          ORRNE    r3,r3,#1
00002c  f0230301          BICEQ    r3,r3,#1
000030  7143              STRB     r3,[r0,#5]
;;;231    
;;;232    	/* The Zero flag is set if the result is 0 */
;;;233    	SetFlag(Z_FLAG, (temp & 0x00FF) == 0);
000032  f0110fff          TST      r1,#0xff
000036  b2db              UXTB     r3,r3
000038  bf0c              ITE      EQ
00003a  f0430302          ORREQ    r3,r3,#2
00003e  f0230302          BICNE    r3,r3,#2
000042  7143              STRB     r3,[r0,#5]
;;;234    
;;;235    	/* The signed Overflow flag is set based on all that up there */
;;;236    	SetFlag(V_FLAG, (temp ^ (uint16_t)A) & (temp ^ value) & 0x0080);
000044  ea81030c          EOR      r3,r1,r12
000048  404a              EORS     r2,r2,r1
00004a  401a              ANDS     r2,r2,r3
00004c  f0120f80          TST      r2,#0x80
000050  7942              LDRB     r2,[r0,#5]  ; P
000052  bf14              ITE      NE
000054  f0420240          ORRNE    r2,r2,#0x40
000058  f0220240          BICEQ    r2,r2,#0x40
00005c  7142              STRB     r2,[r0,#5]
;;;237    
;;;238    	/* The negative flag is set to the most significant bit of the result */
;;;239    	SetFlag(N_FLAG, temp & 0x0080);
00005e  f0110f80          TST      r1,#0x80
000062  b2d2              UXTB     r2,r2
000064  bf14              ITE      NE
000066  f0420280          ORRNE    r2,r2,#0x80
00006a  f0220280          BICEQ    r2,r2,#0x80
00006e  7142              STRB     r2,[r0,#5]
;;;240    
;;;241    	/* Load the result into the accumulator */
;;;242    	A = temp & 0x00FF;
000070  7081              STRB     r1,[r0,#2]
;;;243    
;;;244    #ifdef TODO_ENABLE
;;;245    	if( (P & 0x08) == 0)
;;;246    	{
;;;247    		cpu_clockticks++;
;;;248    	}
;;;249    #endif
;;;250    }   
000072  bd10              POP      {r4,pc}
;;;251    
                          ENDP

                  |L31.116|
                          DCD      ||.data||

                          AREA ||i.cpu_sta||, CODE, READONLY, ALIGN=2

                  cpu_sta PROC
;;;46     /* STA - Store Accumulator */
;;;47     static inline void cpu_sta(CpuAdrMode adrmode)   
000000  b570              PUSH     {r4-r6,lr}
;;;48     {   
;;;49     	uint16_t savepc = adrmode();   
000002  4780              BLX      r0
;;;50     	cpu_putmemory(savepc,A);   
000004  f8dfc260          LDR      r12,|L32.616|
000008  f4004370          AND      r3,r0,#0xf000
00000c  131d              ASRS     r5,r3,#12
00000e  f89c2002          LDRB     r2,[r12,#2]  ; A
000012  2100              MOVS     r1,#0
000014  4c95              LDR      r4,|L32.620|
000016  4b96              LDR      r3,|L32.624|
000018  2d05              CMP      r5,#5
;;;51     }   
00001a  bf28              IT       CS
00001c  bd70              POPCS    {r4-r6,pc}
00001e  e8dff005          TBB      [pc,r5]
000022  0303              DCB      0x03,0x03
000024  07078d00          DCB      0x07,0x07,0x8d,0x00
000028  f3c0000a          UBFX     r0,r0,#0,#11
00002c  5422              STRB     r2,[r4,r0]
                  |L32.46|
00002e  bd70              POP      {r4-r6,pc}
000030  f0000107          AND      r1,r0,#7
000034  4d8f              LDR      r5,|L32.628|
000036  4890              LDR      r0,|L32.632|
000038  4c90              LDR      r4,|L32.636|
00003a  2908              CMP      r1,#8
00003c  bf28              IT       CS
00003e  bd70              POPCS    {r4-r6,pc}
000040  e8dff001          TBB      [pc,r1]
000044  05070409          DCB      0x05,0x07,0x04,0x09
000048  0c15232c          DCB      0x0c,0x15,0x23,0x2c
00004c  e7ef              B        |L32.46|
00004e  702a              STRB     r2,[r5,#0]
000050  bd70              POP      {r4-r6,pc}
000052  706a              STRB     r2,[r5,#1]
000054  bd70              POP      {r4-r6,pc}
000056  f8832100          STRB     r2,[r3,#0x100]
00005a  bd70              POP      {r4-r6,pc}
00005c  f8930100          LDRB     r0,[r3,#0x100]  ; Spr_Mem
000060  541a              STRB     r2,[r3,r0]
000062  f8930100          LDRB     r0,[r3,#0x100]  ; Spr_Mem
000066  1c40              ADDS     r0,r0,#1
000068  f8830100          STRB     r0,[r3,#0x100]
00006c  bd70              POP      {r4-r6,pc}
00006e  7801              LDRB     r1,[r0,#0]  ; PPU_Latch_Flag
000070  2900              CMP      r1,#0
000072  bf08              IT       EQ
000074  4b82              LDREQ    r3,|L32.640|
000076  d003              BEQ      |L32.128|
000078  2aef              CMP      r2,#0xef
00007a  bf88              IT       HI
00007c  2200              MOVHI    r2,#0
00007e  4b81              LDR      r3,|L32.644|
                  |L32.128|
000080  f0810101          EOR      r1,r1,#1
000084  701a              STRB     r2,[r3,#0]
000086  7001              STRB     r1,[r0,#0]
000088  bd70              POP      {r4-r6,pc}
00008a  7821              LDRB     r1,[r4,#0]  ; PPU_Mem
00008c  eb022101          ADD      r1,r2,r1,LSL #8
000090  8021              STRH     r1,[r4,#0]
000092  7801              LDRB     r1,[r0,#0]  ; PPU_Latch_Flag
000094  f0810101          EOR      r1,r1,#1
000098  7001              STRB     r1,[r0,#0]
00009a  bd70              POP      {r4-r6,pc}
00009c  8820              LDRH     r0,[r4,#0]  ; PPU_Mem
00009e  f4104170          ANDS     r1,r0,#0xf000
0000a2  bf18              IT       NE
0000a4  f5b15f80          CMPNE    r1,#0x1000
0000a8  d03f              BEQ      |L32.298|
0000aa  f5b15f00          CMP      r1,#0x2000
0000ae  d003              BEQ      |L32.184|
0000b0  f5b15f40          CMP      r1,#0x3000
0000b4  d019              BEQ      |L32.234|
0000b6  e038              B        |L32.298|
                  |L32.184|
0000b8  f3c0000b          UBFX     r0,r0,#0,#12
0000bc  f5b06f40          CMP      r0,#0xc00
0000c0  bf84              ITT      HI
0000c2  69a1              LDRHI    r1,[r4,#0x18]  ; PPU_Mem
0000c4  f5a06040          SUBHI    r0,r0,#0xc00
0000c8  d80d              BHI      |L32.230|
0000ca  f5b06f00          CMP      r0,#0x800
0000ce  bf84              ITT      HI
0000d0  6961              LDRHI    r1,[r4,#0x14]  ; PPU_Mem
0000d2  f5a06000          SUBHI    r0,r0,#0x800
0000d6  d806              BHI      |L32.230|
0000d8  f5b06f80          CMP      r0,#0x400
0000dc  bf86              ITTE     HI
0000de  6921              LDRHI    r1,[r4,#0x10]  ; PPU_Mem
0000e0  f5a06080          SUBHI    r0,r0,#0x400
0000e4  68e1              LDRLS    r1,[r4,#0xc]  ; PPU_Mem
                  |L32.230|
0000e6  540a              STRB     r2,[r1,r0]
0000e8  e01f              B        |L32.298|
                  |L32.234|
0000ea  f000011f          AND      r1,r0,#0x1f
0000ee  f000000f          AND      r0,r0,#0xf
0000f2  290f              CMP      r1,#0xf
0000f4  4420              ADD      r0,r0,r4
0000f6  d915              BLS      |L32.292|
0000f8  f880202c          STRB     r2,[r0,#0x2c]
0000fc  7820              LDRB     r0,[r4,#0]  ; PPU_Mem
0000fe  f0100f03          TST      r0,#3
000102  d112              BNE      |L32.298|
000104  7722              STRB     r2,[r4,#0x1c]
000106  f884202c          STRB     r2,[r4,#0x2c]
00010a  f8842020          STRB     r2,[r4,#0x20]
00010e  f8842030          STRB     r2,[r4,#0x30]
000112  f8842024          STRB     r2,[r4,#0x24]
000116  f8842034          STRB     r2,[r4,#0x34]
00011a  f8842028          STRB     r2,[r4,#0x28]
00011e  f8842038          STRB     r2,[r4,#0x38]
000122  e002              B        |L32.298|
                  |L32.292|
000124  7702              STRB     r2,[r0,#0x1c]
000126  f7fffffe          BL       premap_palette
                  |L32.298|
00012a  7828              LDRB     r0,[r5,#0]  ; PPU_Reg
00012c  f0100f04          TST      r0,#4
000130  8820              LDRH     r0,[r4,#0]  ; PPU_Mem
000132  bf14              ITE      NE
000134  3020              ADDNE    r0,r0,#0x20
000136  1c40              ADDEQ    r0,r0,#1
000138  8020              STRH     r0,[r4,#0]
00013a  bd70              POP      {r4-r6,pc}
00013c  f5a04580          SUB      r5,r0,#0x4000
000140  3d14              SUBS     r5,r5,#0x14
000142  d050              BEQ      |L32.486|
000144  f5a04380          SUB      r3,r0,#0x4000
000148  3b16              SUBS     r3,r3,#0x16
00014a  bf18              IT       NE
00014c  bd70              POPNE    {r4-r6,pc}
00014e  2a00              CMP      r2,#0
000150  d046              BEQ      |L32.480|
000152  484d              LDR      r0,|L32.648|
000154  7001              STRB     r1,[r0,#0]
000156  484d              LDR      r0,|L32.652|
000158  6900              LDR      r0,[r0,#0x10]
00015a  43c0              MVNS     r0,r0
00015c  b283              UXTH     r3,r0
00015e  484c              LDR      r0,|L32.656|
000160  8801              LDRH     r1,[r0,#0]  ; joys
000162  f5b16f40          CMP      r1,#0xc00
000166  bf94              ITE      LS
000168  2400              MOVLS    r4,#0
00016a  2401              MOVHI    r4,#1
00016c  ea434304          ORR      r3,r3,r4,LSL #16
000170  f5b16f80          CMP      r1,#0x400
000174  bf34              ITE      CC
000176  2101              MOVCC    r1,#1
000178  2100              MOVCS    r1,#0
00017a  ea434141          ORR      r1,r3,r1,LSL #17
00017e  8843              LDRH     r3,[r0,#2]  ; joys
000180  f5b36f40          CMP      r3,#0xc00
000184  bf8c              ITE      HI
000186  2401              MOVHI    r4,#1
000188  2400              MOVLS    r4,#0
00018a  ea414184          ORR      r1,r1,r4,LSL #18
00018e  f5b36f80          CMP      r3,#0x400
000192  bf34              ITE      CC
000194  2301              MOVCC    r3,#1
000196  2300              MOVCS    r3,#0
000198  ea4141c3          ORR      r1,r1,r3,LSL #19
00019c  88c3              LDRH     r3,[r0,#6]  ; joys
00019e  f5b36f40          CMP      r3,#0xc00
0001a2  bf8c              ITE      HI
0001a4  2401              MOVHI    r4,#1
0001a6  2400              MOVLS    r4,#0
0001a8  ea415104          ORR      r1,r1,r4,LSL #20
0001ac  f5b36f80          CMP      r3,#0x400
0001b0  bf34              ITE      CC
0001b2  2301              MOVCC    r3,#1
0001b4  2300              MOVCS    r3,#0
0001b6  ea415143          ORR      r1,r1,r3,LSL #21
0001ba  8880              LDRH     r0,[r0,#4]  ; joys
0001bc  f5b06f40          CMP      r0,#0xc00
0001c0  bf8c              ITE      HI
0001c2  2301              MOVHI    r3,#1
0001c4  2300              MOVLS    r3,#0
0001c6  ea415183          ORR      r1,r1,r3,LSL #22
0001ca  f5b06f80          CMP      r0,#0x400
0001ce  bf34              ITE      CC
0001d0  2001              MOVCC    r0,#1
0001d2  2000              MOVCS    r0,#0
0001d4  ea4150c0          ORR      r0,r1,r0,LSL #23
0001d8  f8cc0014          STR      r0,[r12,#0x14]  ; joypad_state
0001dc  f8cc0014          STR      r0,[r12,#0x14]  ; joypad_state
                  |L32.480|
0001e0  482c              LDR      r0,|L32.660|
0001e2  7002              STRB     r2,[r0,#0]
                  |L32.484|
0001e4  bd70              POP      {r4-r6,pc}
                  |L32.486|
0001e6  f8dc0040          LDR      r0,[r12,#0x40]  ; cpu_clockticks
0001ea  2100              MOVS     r1,#0
0001ec  f5a07000          SUB      r0,r0,#0x200
0001f0  f8cc0040          STR      r0,[r12,#0x40]  ; cpu_clockticks
0001f4  0910              LSRS     r0,r2,#4
0001f6  2810              CMP      r0,#0x10
0001f8  d21a              BCS      |L32.560|
0001fa  e8dff000          TBB      [pc,r0]
0001fe  0909              DCB      0x09,0x09
000200  19191919          DCB      0x19,0x19,0x19,0x19
000204  08080c0c          DCB      0x08,0x08,0x0c,0x0c
000208  0c0c1313          DCB      0x0c,0x0c,0x13,0x13
00020c  1313              DCB      0x13,0x13
00020e  e7e9              B        |L32.484|
000210  eb042102          ADD      r1,r4,r2,LSL #8
000214  e00c              B        |L32.560|
000216  f8dc0038          LDR      r0,[r12,#0x38]  ; prg_rombank0
00021a  eb002002          ADD      r0,r0,r2,LSL #8
00021e  f5a04100          SUB      r1,r0,#0x8000
000222  e005              B        |L32.560|
000224  f8dc003c          LDR      r0,[r12,#0x3c]  ; prg_rombank1
000228  eb002002          ADD      r0,r0,r2,LSL #8
00022c  f5a04140          SUB      r1,r0,#0xc000
                  |L32.560|
000230  1a58              SUBS     r0,r3,r1
000232  2800              CMP      r0,#0
000234  dd04              BLE      |L32.576|
000236  f5b07f80          CMP      r0,#0x100
00023a  bfb8              IT       LT
00023c  2200              MOVLT    r2,#0
00023e  db06              BLT      |L32.590|
                  |L32.576|
000240  e8bd4070          POP      {r4-r6,lr}
000244  f44f7280          MOV      r2,#0x100
000248  4809              LDR      r0,|L32.624|
00024a  f7ffbffe          B.W      __aeabi_memmove
                  |L32.590|
00024e  5c88              LDRB     r0,[r1,r2]
000250  5498              STRB     r0,[r3,r2]
000252  1888              ADDS     r0,r1,r2
000254  f890c001          LDRB     r12,[r0,#1]
000258  1898              ADDS     r0,r3,r2
00025a  1c92              ADDS     r2,r2,#2
00025c  f880c001          STRB     r12,[r0,#1]
000260  f5b27f80          CMP      r2,#0x100
000264  dbf3              BLT      |L32.590|
000266  bd70              POP      {r4-r6,pc}
;;;52     
                          ENDP

                  |L32.616|
                          DCD      ||.data||
                  |L32.620|
                          DCD      ||.bss||
                  |L32.624|
                          DCD      Spr_Mem
                  |L32.628|
                          DCD      PPU_Reg
                  |L32.632|
                          DCD      PPU_Latch_Flag
                  |L32.636|
                          DCD      PPU_Mem
                  |L32.640|
                          DCD      PPU_BG_HScrlOrg
                  |L32.644|
                          DCD      PPU_BG_VScrlOrg
                  |L32.648|
                          DCD      ||.data||+0x9
                  |L32.652|
                          DCD      0x40021000
                  |L32.656|
                          DCD      joys
                  |L32.660|
                          DCD      ||.data||+0xb

                          AREA ||i.cpu_stz||, CODE, READONLY, ALIGN=2

                  cpu_stz PROC
;;;723    
;;;724    static inline void cpu_stz(CpuAdrMode adrmode)   
000000  b570              PUSH     {r4-r6,lr}
;;;725    {   
;;;726    	uint16_t savepc = /*opcodetable[opcode].*/adrmode();   
000002  4780              BLX      r0
000004  f4004170          AND      r1,r0,#0xf000
000008  ea4f3c21          ASR      r12,r1,#12
;;;727    	cpu_putmemory(savepc,0);   
00000c  2200              MOVS     r2,#0
00000e  495f              LDR      r1,|L33.396|
000010  4b5f              LDR      r3,|L33.400|
000012  f1bc0f05          CMP      r12,#5
;;;728    }   
000016  bf28              IT       CS
000018  bd70              POPCS    {r4-r6,pc}
00001a  e8dff00c          TBB      [pc,r12]
00001e  0303              DCB      0x03,0x03
000020  07078900          DCB      0x07,0x07,0x89,0x00
000024  f3c0000a          UBFX     r0,r0,#0,#11
000028  540a              STRB     r2,[r1,r0]
                  |L33.42|
00002a  bd70              POP      {r4-r6,pc}
00002c  f0000107          AND      r1,r0,#7
000030  4d58              LDR      r5,|L33.404|
000032  4859              LDR      r0,|L33.408|
000034  4c59              LDR      r4,|L33.412|
000036  2908              CMP      r1,#8
000038  bf28              IT       CS
00003a  bd70              POPCS    {r4-r6,pc}
00003c  e8dff001          TBB      [pc,r1]
000040  05070409          DCB      0x05,0x07,0x04,0x09
000044  0c151f28          DCB      0x0c,0x15,0x1f,0x28
000048  e7ef              B        |L33.42|
00004a  702a              STRB     r2,[r5,#0]
00004c  bd70              POP      {r4-r6,pc}
00004e  706a              STRB     r2,[r5,#1]
000050  bd70              POP      {r4-r6,pc}
000052  f8832100          STRB     r2,[r3,#0x100]
000056  bd70              POP      {r4-r6,pc}
000058  f8930100          LDRB     r0,[r3,#0x100]  ; Spr_Mem
00005c  541a              STRB     r2,[r3,r0]
00005e  f8930100          LDRB     r0,[r3,#0x100]  ; Spr_Mem
000062  1c40              ADDS     r0,r0,#1
000064  f8830100          STRB     r0,[r3,#0x100]
000068  bd70              POP      {r4-r6,pc}
00006a  7801              LDRB     r1,[r0,#0]  ; PPU_Latch_Flag
00006c  2900              CMP      r1,#0
00006e  bf14              ITE      NE
000070  4b4b              LDRNE    r3,|L33.416|
000072  4b4c              LDREQ    r3,|L33.420|
000074  701a              STRB     r2,[r3,#0]
000076  f0810101          EOR      r1,r1,#1
00007a  7001              STRB     r1,[r0,#0]
00007c  bd70              POP      {r4-r6,pc}
00007e  7821              LDRB     r1,[r4,#0]  ; PPU_Mem
000080  eb022101          ADD      r1,r2,r1,LSL #8
000084  8021              STRH     r1,[r4,#0]
000086  7801              LDRB     r1,[r0,#0]  ; PPU_Latch_Flag
000088  f0810101          EOR      r1,r1,#1
00008c  7001              STRB     r1,[r0,#0]
00008e  bd70              POP      {r4-r6,pc}
000090  8820              LDRH     r0,[r4,#0]  ; PPU_Mem
000092  f4104170          ANDS     r1,r0,#0xf000
000096  bf18              IT       NE
000098  f5b15f80          CMPNE    r1,#0x1000
00009c  d03f              BEQ      |L33.286|
00009e  f5b15f00          CMP      r1,#0x2000
0000a2  d003              BEQ      |L33.172|
0000a4  f5b15f40          CMP      r1,#0x3000
0000a8  d019              BEQ      |L33.222|
0000aa  e038              B        |L33.286|
                  |L33.172|
0000ac  f3c0000b          UBFX     r0,r0,#0,#12
0000b0  f5b06f40          CMP      r0,#0xc00
0000b4  bf84              ITT      HI
0000b6  69a1              LDRHI    r1,[r4,#0x18]  ; PPU_Mem
0000b8  f5a06040          SUBHI    r0,r0,#0xc00
0000bc  d80d              BHI      |L33.218|
0000be  f5b06f00          CMP      r0,#0x800
0000c2  bf84              ITT      HI
0000c4  6961              LDRHI    r1,[r4,#0x14]  ; PPU_Mem
0000c6  f5a06000          SUBHI    r0,r0,#0x800
0000ca  d806              BHI      |L33.218|
0000cc  f5b06f80          CMP      r0,#0x400
0000d0  bf86              ITTE     HI
0000d2  6921              LDRHI    r1,[r4,#0x10]  ; PPU_Mem
0000d4  f5a06080          SUBHI    r0,r0,#0x400
0000d8  68e1              LDRLS    r1,[r4,#0xc]  ; PPU_Mem
                  |L33.218|
0000da  540a              STRB     r2,[r1,r0]
0000dc  e01f              B        |L33.286|
                  |L33.222|
0000de  f000011f          AND      r1,r0,#0x1f
0000e2  f000000f          AND      r0,r0,#0xf
0000e6  290f              CMP      r1,#0xf
0000e8  4420              ADD      r0,r0,r4
0000ea  d915              BLS      |L33.280|
0000ec  f880202c          STRB     r2,[r0,#0x2c]
0000f0  7820              LDRB     r0,[r4,#0]  ; PPU_Mem
0000f2  f0100f03          TST      r0,#3
0000f6  d112              BNE      |L33.286|
0000f8  7722              STRB     r2,[r4,#0x1c]
0000fa  f884202c          STRB     r2,[r4,#0x2c]
0000fe  f8842020          STRB     r2,[r4,#0x20]
000102  f8842030          STRB     r2,[r4,#0x30]
000106  f8842024          STRB     r2,[r4,#0x24]
00010a  f8842034          STRB     r2,[r4,#0x34]
00010e  f8842028          STRB     r2,[r4,#0x28]
000112  f8842038          STRB     r2,[r4,#0x38]
000116  e002              B        |L33.286|
                  |L33.280|
000118  7702              STRB     r2,[r0,#0x1c]
00011a  f7fffffe          BL       premap_palette
                  |L33.286|
00011e  7828              LDRB     r0,[r5,#0]  ; PPU_Reg
000120  f0100f04          TST      r0,#4
000124  8820              LDRH     r0,[r4,#0]  ; PPU_Mem
000126  bf14              ITE      NE
000128  3020              ADDNE    r0,r0,#0x20
00012a  1c40              ADDEQ    r0,r0,#1
00012c  8020              STRH     r0,[r4,#0]
00012e  bd70              POP      {r4-r6,pc}
000130  f5a04c80          SUB      r12,r0,#0x4000
000134  f1bc0c14          SUBS     r12,r12,#0x14
000138  d006              BEQ      |L33.328|
00013a  f5a04180          SUB      r1,r0,#0x4000
00013e  3916              SUBS     r1,r1,#0x16
000140  bf04              ITT      EQ
000142  4819              LDREQ    r0,|L33.424|
000144  7002              STRBEQ   r2,[r0,#0]
000146  bd70              POP      {r4-r6,pc}
                  |L33.328|
000148  4818              LDR      r0,|L33.428|
00014a  6c02              LDR      r2,[r0,#0x40]  ; cpu_clockticks
00014c  f5a27200          SUB      r2,r2,#0x200
000150  6402              STR      r2,[r0,#0x40]  ; cpu_clockticks
000152  1a58              SUBS     r0,r3,r1
000154  2800              CMP      r0,#0
000156  dd04              BLE      |L33.354|
000158  f5b07f80          CMP      r0,#0x100
00015c  bfb8              IT       LT
00015e  2000              MOVLT    r0,#0
000160  db06              BLT      |L33.368|
                  |L33.354|
000162  e8bd4070          POP      {r4-r6,lr}
000166  f44f7280          MOV      r2,#0x100
00016a  4809              LDR      r0,|L33.400|
00016c  f7ffbffe          B.W      __aeabi_memmove
                  |L33.368|
000170  5c0a              LDRB     r2,[r1,r0]
000172  541a              STRB     r2,[r3,r0]
000174  180a              ADDS     r2,r1,r0
000176  eb030c00          ADD      r12,r3,r0
00017a  7852              LDRB     r2,[r2,#1]
00017c  1c80              ADDS     r0,r0,#2
00017e  f88c2001          STRB     r2,[r12,#1]
000182  f5b07f80          CMP      r0,#0x100
000186  dbf3              BLT      |L33.368|
000188  bd70              POP      {r4-r6,pc}
;;;729    
                          ENDP

00018a  0000              DCW      0x0000
                  |L33.396|
                          DCD      ||.bss||
                  |L33.400|
                          DCD      Spr_Mem
                  |L33.404|
                          DCD      PPU_Reg
                  |L33.408|
                          DCD      PPU_Latch_Flag
                  |L33.412|
                          DCD      PPU_Mem
                  |L33.416|
                          DCD      PPU_BG_VScrlOrg
                  |L33.420|
                          DCD      PPU_BG_HScrlOrg
                  |L33.424|
                          DCD      ||.data||+0xb
                  |L33.428|
                          DCD      ||.data||

                          AREA ||i.joypad_read||, CODE, READONLY, ALIGN=2

                  joypad_read PROC
;;;73     
;;;74     uint8_t joypad_read(uint8_t n) {
000000  2801              CMP      r0,#1
000002  d03e              BEQ      |L34.130|
;;;75     	if (n==1) return 0;
;;;76     	// if (joypad_strobe) return joypad_A();
;;;77     	switch (joypad_read_state[n]++) {
000004  4a20              LDR      r2,|L34.136|
000006  5c11              LDRB     r1,[r2,r0]
000008  1c4b              ADDS     r3,r1,#1
00000a  5413              STRB     r3,[r2,r0]
;;;78     		JOYPAD_BTN_TABLE(JOYPAD_BTN_READ)
00000c  f1a20009          SUB      r0,r2,#9
000010  2908              CMP      r1,#8                 ;77
000012  d236              BCS      |L34.130|
000014  e8dff001          TBB      [pc,r1]               ;77
000018  040a1016          DCB      0x04,0x0a,0x10,0x16
00001c  1c22282e          DCB      0x1c,0x22,0x28,0x2e
000020  6941              LDR      r1,[r0,#0x14]  ; joypad_state
000022  6980              LDR      r0,[r0,#0x18]  ; joypad_A
000024  4008              ANDS     r0,r0,r1
;;;79     		default: return 0;
;;;80     	}
;;;81     }
000026  bf08              IT       EQ
000028  4770              BXEQ     lr
00002a  e028              B        |L34.126|
00002c  6941              LDR      r1,[r0,#0x14]         ;78  ; joypad_state
00002e  69c0              LDR      r0,[r0,#0x1c]         ;78  ; joypad_B
000030  4008              ANDS     r0,r0,r1              ;78
000032  bf08              IT       EQ
000034  4770              BXEQ     lr
000036  e022              B        |L34.126|
000038  6941              LDR      r1,[r0,#0x14]         ;78  ; joypad_state
00003a  6b00              LDR      r0,[r0,#0x30]         ;78  ; joypad_SEL
00003c  4008              ANDS     r0,r0,r1              ;78
00003e  bf08              IT       EQ
000040  4770              BXEQ     lr
000042  e01c              B        |L34.126|
000044  6941              LDR      r1,[r0,#0x14]         ;78  ; joypad_state
000046  6b40              LDR      r0,[r0,#0x34]         ;78  ; joypad_START
000048  4008              ANDS     r0,r0,r1              ;78
00004a  bf08              IT       EQ
00004c  4770              BXEQ     lr
00004e  e016              B        |L34.126|
000050  6941              LDR      r1,[r0,#0x14]         ;78  ; joypad_state
000052  6a00              LDR      r0,[r0,#0x20]         ;78  ; joypad_U
000054  4008              ANDS     r0,r0,r1              ;78
000056  bf08              IT       EQ
000058  4770              BXEQ     lr
00005a  e010              B        |L34.126|
00005c  6941              LDR      r1,[r0,#0x14]         ;78  ; joypad_state
00005e  6a40              LDR      r0,[r0,#0x24]         ;78  ; joypad_D
000060  4008              ANDS     r0,r0,r1              ;78
000062  bf08              IT       EQ
000064  4770              BXEQ     lr
000066  e00a              B        |L34.126|
000068  6941              LDR      r1,[r0,#0x14]         ;78  ; joypad_state
00006a  6a80              LDR      r0,[r0,#0x28]         ;78  ; joypad_L
00006c  4008              ANDS     r0,r0,r1              ;78
00006e  bf08              IT       EQ
000070  4770              BXEQ     lr
000072  e004              B        |L34.126|
000074  6941              LDR      r1,[r0,#0x14]         ;78  ; joypad_state
000076  6ac0              LDR      r0,[r0,#0x2c]         ;78  ; joypad_R
000078  4008              ANDS     r0,r0,r1              ;78
00007a  bf08              IT       EQ
00007c  4770              BXEQ     lr
                  |L34.126|
00007e  2001              MOVS     r0,#1                 ;78
000080  4770              BX       lr
                  |L34.130|
000082  2000              MOVS     r0,#0                 ;79
000084  4770              BX       lr
;;;4      #include "ppu.h" 
                          ENDP

000086  0000              DCW      0x0000
                  |L34.136|
                          DCD      ||.data||+0x9

                          AREA ||i.joypad_update||, CODE, READONLY, ALIGN=2

                  joypad_update PROC
;;;7      // static __forceinline 
;;;8      uint32_t joypad_update(void) 
000000  4821              LDR      r0,|L35.136|
;;;9      {
;;;10     	uint32_t state = BUTTONS & 0xFFFF;
000002  6900              LDR      r0,[r0,#0x10]
000004  43c0              MVNS     r0,r0
000006  b282              UXTH     r2,r0
;;;11     	state |= (joys.x0 > 3072)  << 16;
000008  4820              LDR      r0,|L35.140|
00000a  8801              LDRH     r1,[r0,#0]  ; joys
00000c  f5b16f40          CMP      r1,#0xc00
000010  bf8c              ITE      HI
000012  2301              MOVHI    r3,#1
000014  2300              MOVLS    r3,#0
000016  ea424203          ORR      r2,r2,r3,LSL #16
;;;12     	state |= (joys.x0 < 1024)  << 17;
00001a  f5b16f80          CMP      r1,#0x400
00001e  bf34              ITE      CC
000020  2101              MOVCC    r1,#1
000022  2100              MOVCS    r1,#0
000024  ea424241          ORR      r2,r2,r1,LSL #17
;;;13     	state |= (joys.y0 > 3072)  << 18;
000028  8841              LDRH     r1,[r0,#2]  ; joys
00002a  f5b16f40          CMP      r1,#0xc00
00002e  bf8c              ITE      HI
000030  2301              MOVHI    r3,#1
000032  2300              MOVLS    r3,#0
000034  ea424283          ORR      r2,r2,r3,LSL #18
;;;14     	state |= (joys.y0 < 1024)  << 19;
000038  f5b16f80          CMP      r1,#0x400
00003c  bf34              ITE      CC
00003e  2101              MOVCC    r1,#1
000040  2100              MOVCS    r1,#0
000042  ea4241c1          ORR      r1,r2,r1,LSL #19
;;;15     	state |= (joys.x1 > 3072)  << 20;
000046  88c2              LDRH     r2,[r0,#6]  ; joys
000048  f5b26f40          CMP      r2,#0xc00
00004c  bf8c              ITE      HI
00004e  2301              MOVHI    r3,#1
000050  2300              MOVLS    r3,#0
000052  ea415103          ORR      r1,r1,r3,LSL #20
;;;16     	state |= (joys.x1 < 1024)  << 21;
000056  f5b26f80          CMP      r2,#0x400
00005a  bf34              ITE      CC
00005c  2201              MOVCC    r2,#1
00005e  2200              MOVCS    r2,#0
000060  ea415142          ORR      r1,r1,r2,LSL #21
;;;17     	state |= (joys.y1 > 3072)  << 22;
000064  8880              LDRH     r0,[r0,#4]  ; joys
000066  f5b06f40          CMP      r0,#0xc00
00006a  bf8c              ITE      HI
00006c  2201              MOVHI    r2,#1
00006e  2200              MOVLS    r2,#0
000070  ea415182          ORR      r1,r1,r2,LSL #22
;;;18     	state |= (joys.y1 < 1024)  << 23;
000074  f5b06f80          CMP      r0,#0x400
000078  bf34              ITE      CC
00007a  2001              MOVCC    r0,#1
00007c  2000              MOVCS    r0,#0
00007e  ea4150c0          ORR      r0,r1,r0,LSL #23
;;;19     	//state |= (getAccelLeft())  << 24; //disable the IMU
;;;20     	//state |= (getAccelRight()) << 25;
;;;21     	//state |= (getAccelFlick()) << 26;
;;;22     	joypad_state = state;
000082  4903              LDR      r1,|L35.144|
000084  6148              STR      r0,[r1,#0x14]  ; joypad_state
;;;23     	return state;
;;;24     }
000086  4770              BX       lr
;;;25     
                          ENDP

                  |L35.136|
                          DCD      0x40021000
                  |L35.140|
                          DCD      joys
                  |L35.144|
                          DCD      ||.data||

                          AREA ||i.joypad_write||, CODE, READONLY, ALIGN=2

                  joypad_write PROC
;;;63     
;;;64     void joypad_write(uint8_t n, uint8_t v) {
000000  b410              PUSH     {r4}
;;;65     	// if (joypad_strobe[n] && !v) {
;;;66     	if (v) {
000002  2900              CMP      r1,#0
000004  d049              BEQ      |L36.154|
;;;67     		joypad_read_state[n] = 0;
000006  4b27              LDR      r3,|L36.164|
000008  2200              MOVS     r2,#0
00000a  541a              STRB     r2,[r3,r0]
00000c  4a26              LDR      r2,|L36.168|
00000e  6912              LDR      r2,[r2,#0x10]
000010  43d2              MVNS     r2,r2
000012  fa1ffc82          UXTH     r12,r2
000016  4a25              LDR      r2,|L36.172|
000018  8813              LDRH     r3,[r2,#0]  ; joys
00001a  f5b36f40          CMP      r3,#0xc00
00001e  bf94              ITE      LS
000020  2400              MOVLS    r4,#0
000022  2401              MOVHI    r4,#1
000024  ea4c4c04          ORR      r12,r12,r4,LSL #16
000028  f5b36f80          CMP      r3,#0x400
00002c  bf34              ITE      CC
00002e  2301              MOVCC    r3,#1
000030  2300              MOVCS    r3,#0
000032  ea4c4c43          ORR      r12,r12,r3,LSL #17
000036  8853              LDRH     r3,[r2,#2]  ; joys
000038  f5b36f40          CMP      r3,#0xc00
00003c  bf8c              ITE      HI
00003e  2401              MOVHI    r4,#1
000040  2400              MOVLS    r4,#0
000042  ea4c4c84          ORR      r12,r12,r4,LSL #18
000046  f5b36f80          CMP      r3,#0x400
00004a  bf34              ITE      CC
00004c  2301              MOVCC    r3,#1
00004e  2300              MOVCS    r3,#0
000050  ea4c4cc3          ORR      r12,r12,r3,LSL #19
000054  88d3              LDRH     r3,[r2,#6]  ; joys
000056  f5b36f40          CMP      r3,#0xc00
00005a  bf8c              ITE      HI
00005c  2401              MOVHI    r4,#1
00005e  2400              MOVLS    r4,#0
000060  ea4c5c04          ORR      r12,r12,r4,LSL #20
000064  f5b36f80          CMP      r3,#0x400
000068  bf34              ITE      CC
00006a  2301              MOVCC    r3,#1
00006c  2300              MOVCS    r3,#0
00006e  ea4c5343          ORR      r3,r12,r3,LSL #21
000072  8892              LDRH     r2,[r2,#4]  ; joys
000074  f5b26f40          CMP      r2,#0xc00
000078  bf8c              ITE      HI
00007a  f04f0c01          MOVHI    r12,#1
00007e  f04f0c00          MOVLS    r12,#0
000082  ea43538c          ORR      r3,r3,r12,LSL #22
000086  f5b26f80          CMP      r2,#0x400
00008a  bf34              ITE      CC
00008c  2201              MOVCC    r2,#1
00008e  2200              MOVCS    r2,#0
000090  ea4352c2          ORR      r2,r3,r2,LSL #23
000094  4b06              LDR      r3,|L36.176|
000096  615a              STR      r2,[r3,#0x14]  ; joypad_state
;;;68     		joypad_state = joypad_update();
000098  615a              STR      r2,[r3,#0x14]  ; joypad_state
                  |L36.154|
;;;69     	}
;;;70     	joypad_strobe[n] = v;
00009a  4a06              LDR      r2,|L36.180|
00009c  5411              STRB     r1,[r2,r0]
;;;71     }
00009e  bc10              POP      {r4}
0000a0  4770              BX       lr
;;;72     
                          ENDP

0000a2  0000              DCW      0x0000
                  |L36.164|
                          DCD      ||.data||+0x9
                  |L36.168|
                          DCD      0x40021000
                  |L36.172|
                          DCD      joys
                  |L36.176|
                          DCD      ||.data||
                  |L36.180|
                          DCD      ||.data||+0xb

                          AREA ||i.sprite_dma||, CODE, READONLY, ALIGN=2

                  sprite_dma PROC
;;;204    
;;;205    void sprite_dma(uint8_t scr_addr)  
000000  491f              LDR      r1,|L37.128|
;;;206    {      
;;;207        extern int cpu_clockticks;
;;;208        cpu_clockticks -= 512;
000002  6c0a              LDR      r2,[r1,#0x40]  ; cpu_clockticks
000004  f5a27200          SUB      r2,r2,#0x200
;;;209    
;;;210        const uint8_t *scr_addrptr = 0;  
000008  640a              STR      r2,[r1,#0x40]  ; cpu_clockticks
00000a  2100              MOVS     r1,#0
;;;211        int     i;   
;;;212    
;;;213        switch(scr_addr >> 4){  
00000c  0902              LSRS     r2,r0,#4
00000e  2a10              CMP      r2,#0x10
000010  d21a              BCS      |L37.72|
000012  e8dff002          TBB      [pc,r2]
000016  0808              DCB      0x08,0x08
000018  19191919          DCB      0x19,0x19,0x19,0x19
00001c  33330c0c          DCB      0x33,0x33,0x0c,0x0c
000020  0c0c1313          DCB      0x0c,0x0c,0x13,0x13
000024  1313              DCB      0x13,0x13
;;;214        case 0x0: //RAM   
;;;215        case 0x1: 
;;;216            scr_addrptr = &cpu_ram[(scr_addr << 8)];   
000026  4917              LDR      r1,|L37.132|
000028  eb012100          ADD      r1,r1,r0,LSL #8
;;;217            break;   
00002c  e00c              B        |L37.72|
;;;218        case 0x6: //SRAM   
;;;219        case 0x7:    
;;;220        #ifdef SRAM 
;;;221            scr_addrptr = SRAM + ((scr_addr << 8) - 0x6000);   
;;;222            break;
;;;223        #else
;;;224            return;
;;;225        #endif   
;;;226        case 0x8:
;;;227        case 0x9:   
;;;228        case 0xA:   
;;;229        case 0xB:   
;;;230            scr_addrptr = &prg_rombank0[(scr_addr << 8) - 0x8000];   
00002e  4914              LDR      r1,|L37.128|
000030  6b89              LDR      r1,[r1,#0x38]  ; prg_rombank0
000032  eb012000          ADD      r0,r1,r0,LSL #8
000036  f5a04100          SUB      r1,r0,#0x8000
;;;231            break;   
00003a  e005              B        |L37.72|
;;;232        case 0xC:   
;;;233        case 0xD:   
;;;234        case 0xE:   
;;;235        case 0xF:   
;;;236            scr_addrptr = &prg_rombank1[(scr_addr << 8) - 0xC000];   
00003c  4910              LDR      r1,|L37.128|
00003e  6bc9              LDR      r1,[r1,#0x3c]  ; prg_rombank1
000040  eb012000          ADD      r0,r1,r0,LSL #8
000044  f5a04140          SUB      r1,r0,#0xc000
                  |L37.72|
;;;237            break;   
;;;238        }  
;;;239    
;;;240        for(i=0; i<256; i++){   
000048  4a0f              LDR      r2,|L37.136|
00004a  1a50              SUBS     r0,r2,r1
00004c  2800              CMP      r0,#0
00004e  dd04              BLE      |L37.90|
000050  f5b07f80          CMP      r0,#0x100
000054  bfb8              IT       LT
000056  2000              MOVLT    r0,#0
000058  db04              BLT      |L37.100|
                  |L37.90|
00005a  f44f7280          MOV      r2,#0x100
00005e  480a              LDR      r0,|L37.136|
000060  f7ffbffe          B.W      __aeabi_memmove
                  |L37.100|
;;;241            Spr_Mem.spr_ram[i] = scr_addrptr[i];   
000064  5c0b              LDRB     r3,[r1,r0]
000066  5413              STRB     r3,[r2,r0]
000068  180b              ADDS     r3,r1,r0
00006a  eb020c00          ADD      r12,r2,r0
00006e  785b              LDRB     r3,[r3,#1]
000070  1c80              ADDS     r0,r0,#2
000072  f88c3001          STRB     r3,[r12,#1]
000076  f5b07f80          CMP      r0,#0x100
00007a  dbf3              BLT      |L37.100|
;;;242        }   
;;;243    }   
00007c  4770              BX       lr
;;;244    
                          ENDP

00007e  0000              DCW      0x0000
                  |L37.128|
                          DCD      ||.data||
                  |L37.132|
                          DCD      ||.bss||
                  |L37.136|
                          DCD      Spr_Mem

                          AREA ||.bss||, DATA, NOINIT, ALIGN=0

                  cpu_ram
                          %        2048

                          AREA ||.constdata||, DATA, READONLY, ALIGN=2

                  opcodeticks
                          DCD      0x00000007
                          DCD      0x00000006
                          DCD      0x00000002
                          DCD      0x00000002
                          DCD      0x00000003
                          DCD      0x00000003
                          DCD      0x00000005
                          DCD      0x00000002
                          DCD      0x00000003
                          DCD      0x00000003
                          DCD      0x00000002
                          DCD      0x00000002
                          DCD      0x00000004
                          DCD      0x00000004
                          DCD      0x00000006
                          DCD      0x00000002
                          DCD      0x00000002
                          DCD      0x00000005
                          DCD      0x00000003
                          DCD      0x00000002
                          DCD      0x00000003
                          DCD      0x00000004
                          DCD      0x00000006
                          DCD      0x00000002
                          DCD      0x00000002
                          DCD      0x00000004
                          DCD      0x00000002
                          DCD      0x00000002
                          DCD      0x00000004
                          DCD      0x00000004
                          DCD      0x00000007
                          DCD      0x00000002
                          DCD      0x00000006
                          DCD      0x00000006
                          DCD      0x00000002
                          DCD      0x00000002
                          DCD      0x00000003
                          DCD      0x00000003
                          DCD      0x00000005
                          DCD      0x00000002
                          DCD      0x00000004
                          DCD      0x00000003
                          DCD      0x00000002
                          DCD      0x00000002
                          DCD      0x00000004
                          DCD      0x00000004
                          DCD      0x00000006
                          DCD      0x00000002
                          DCD      0x00000002
                          DCD      0x00000005
                          DCD      0x00000003
                          DCD      0x00000002
                          DCD      0x00000004
                          DCD      0x00000004
                          DCD      0x00000006
                          DCD      0x00000002
                          DCD      0x00000002
                          DCD      0x00000004
                          DCD      0x00000002
                          DCD      0x00000002
                          DCD      0x00000004
                          DCD      0x00000004
                          DCD      0x00000007
                          DCD      0x00000002
                          DCD      0x00000006
                          DCD      0x00000006
                          DCD      0x00000002
                          DCD      0x00000002
                          DCD      0x00000002
                          DCD      0x00000003
                          DCD      0x00000005
                          DCD      0x00000002
                          DCD      0x00000003
                          DCD      0x00000003
                          DCD      0x00000002
                          DCD      0x00000002
                          DCD      0x00000003
                          DCD      0x00000004
                          DCD      0x00000006
                          DCD      0x00000002
                          DCD      0x00000002
                          DCD      0x00000005
                          DCD      0x00000003
                          DCD      0x00000002
                          DCD      0x00000002
                          DCD      0x00000004
                          DCD      0x00000006
                          DCD      0x00000002
                          DCD      0x00000002
                          DCD      0x00000004
                          DCD      0x00000003
                          DCD      0x00000002
                          DCD      0x00000002
                          DCD      0x00000004
                          DCD      0x00000007
                          DCD      0x00000002
                          DCD      0x00000006
                          DCD      0x00000006
                          DCD      0x00000002
                          DCD      0x00000002
                          DCD      0x00000003
                          DCD      0x00000003
                          DCD      0x00000005
                          DCD      0x00000002
                          DCD      0x00000004
                          DCD      0x00000003
                          DCD      0x00000002
                          DCD      0x00000002
                          DCD      0x00000005
                          DCD      0x00000004
                          DCD      0x00000006
                          DCD      0x00000002
                          DCD      0x00000002
                          DCD      0x00000005
                          DCD      0x00000003
                          DCD      0x00000002
                          DCD      0x00000004
                          DCD      0x00000004
                          DCD      0x00000006
                          DCD      0x00000002
                          DCD      0x00000002
                          DCD      0x00000004
                          DCD      0x00000004
                          DCD      0x00000002
                          DCD      0x00000006
                          DCD      0x00000004
                          DCD      0x00000007
                          DCD      0x00000002
                          DCD      0x00000002
                          DCD      0x00000006
                          DCD      0x00000002
                          DCD      0x00000002
                          DCD      0x00000002
                          DCD      0x00000002
                          DCD      0x00000002
                          DCD      0x00000002
                          DCD      0x00000002
                          DCD      0x00000002
                          DCD      0x00000002
                          DCD      0x00000002
                          DCD      0x00000004
                          DCD      0x00000004
                          DCD      0x00000004
                          DCD      0x00000002
                          DCD      0x00000002
                          DCD      0x00000006
                          DCD      0x00000003
                          DCD      0x00000002
                          DCD      0x00000004
                          DCD      0x00000004
                          DCD      0x00000004
                          DCD      0x00000002
                          DCD      0x00000002
                          DCD      0x00000005
                          DCD      0x00000002
                          DCD      0x00000002
                          DCD      0x00000004
                          DCD      0x00000005
                          DCD      0x00000005
                          DCD      0x00000002
                          DCD      0x00000003
                          DCD      0x00000006
                          DCD      0x00000003
                          DCD      0x00000002
                          DCD      0x00000003
                          DCD      0x00000003
                          DCD      0x00000003
                          DCD      0x00000002
                          DCD      0x00000002
                          DCD      0x00000003
                          DCD      0x00000002
                          DCD      0x00000002
                          DCD      0x00000004
                          DCD      0x00000004
                          DCD      0x00000004
                          DCD      0x00000002
                          DCD      0x00000002
                          DCD      0x00000005
                          DCD      0x00000003
                          DCD      0x00000002
                          DCD      0x00000004
                          DCD      0x00000004
                          DCD      0x00000004
                          DCD      0x00000002
                          DCD      0x00000002
                          DCD      0x00000004
                          DCD      0x00000002
                          DCD      0x00000002
                          DCD      0x00000004
                          DCD      0x00000004
                          DCD      0x00000004
                          DCD      0x00000002
                          DCD      0x00000003
                          DCD      0x00000006
                          DCD      0x00000002
                          DCD      0x00000002
                          DCD      0x00000003
                          DCD      0x00000003
                          DCD      0x00000005
                          DCD      0x00000002
                          DCD      0x00000002
                          DCD      0x00000003
                          DCD      0x00000002
                          DCD      0x00000002
                          DCD      0x00000004
                          DCD      0x00000004
                          DCD      0x00000006
                          DCD      0x00000002
                          DCD      0x00000002
                          DCD      0x00000005
                          DCD      0x00000003
                          DCD      0x00000002
                          DCD      0x00000002
                          DCD      0x00000004
                          DCD      0x00000006
                          DCD      0x00000002
                          DCD      0x00000002
                          DCD      0x00000004
                          DCD      0x00000003
                          DCD      0x00000002
                          DCD      0x00000002
                          DCD      0x00000004
                          DCD      0x00000007
                          DCD      0x00000002
                          DCD      0x00000003
                          DCD      0x00000006
                          DCD      0x00000002
                          DCD      0x00000002
                          DCD      0x00000003
                          DCD      0x00000003
                          DCD      0x00000005
                          DCD      0x00000002
                          DCD      0x00000002
                          DCD      0x00000003
                          DCD      0x00000002
                          DCD      0x00000002
                          DCD      0x00000004
                          DCD      0x00000004
                          DCD      0x00000006
                          DCD      0x00000002
                          DCD      0x00000002
                          DCD      0x00000005
                          DCD      0x00000003
                          DCD      0x00000002
                          DCD      0x00000002
                          DCD      0x00000004
                          DCD      0x00000006
                          DCD      0x00000002
                          DCD      0x00000002
                          DCD      0x00000004
                          DCD      0x00000004
                          DCD      0x00000002
                          DCD      0x00000002
                          DCD      0x00000004
                          DCD      0x00000007
                          DCD      0x00000002

                          AREA ||.conststring||, DATA, READONLY, MERGE=1, STRINGS, ALIGN=2

000000  62726b00          DCB      "brk",0
000004  6f726100          DCB      "ora",0
000008  6e6f7000          DCB      "nop",0
00000c  7473627a          DCB      "tsbzp",0
000010  7000    
000012  00                DCB      0
000013  00                DCB      0
000014  6f72617a          DCB      "orazp",0
000018  7000    
00001a  00                DCB      0
00001b  00                DCB      0
00001c  61736c7a          DCB      "aslzp",0
000020  7000    
000022  00                DCB      0
000023  00                DCB      0
000024  70687000          DCB      "php",0
000028  61736c61          DCB      "asla",0
00002c  00      
00002d  00                DCB      0
00002e  00                DCB      0
00002f  00                DCB      0
000030  74736200          DCB      "tsb",0
000034  61736c00          DCB      "asl",0
000038  62706c00          DCB      "bpl",0
00003c  6f726169          DCB      "oraindzp",0
000040  6e647a70
000044  00      
000045  00                DCB      0
000046  00                DCB      0
000047  00                DCB      0
000048  7472627a          DCB      "trbzp",0
00004c  7000    
00004e  00                DCB      0
00004f  00                DCB      0
000050  6f72617a          DCB      "orazpx",0
000054  707800  
000057  00                DCB      0
000058  61736c7a          DCB      "aslzpx",0
00005c  707800  
00005f  00                DCB      0
000060  636c6300          DCB      "clc",0
000064  696e6100          DCB      "ina",0
000068  74726200          DCB      "trb",0
00006c  6a737200          DCB      "jsr",0
000070  616e6400          DCB      "and",0
000074  6269747a          DCB      "bitzp",0
000078  7000    
00007a  00                DCB      0
00007b  00                DCB      0
00007c  616e647a          DCB      "andzp",0
000080  7000    
000082  00                DCB      0
000083  00                DCB      0
000084  726f6c7a          DCB      "rolzp",0
000088  7000    
00008a  00                DCB      0
00008b  00                DCB      0
00008c  706c7000          DCB      "plp",0
000090  726f6c61          DCB      "rola",0
000094  00      
000095  00                DCB      0
000096  00                DCB      0
000097  00                DCB      0
000098  62697400          DCB      "bit",0
00009c  726f6c00          DCB      "rol",0
0000a0  626d6900          DCB      "bmi",0
0000a4  616e6469          DCB      "andindzp",0
0000a8  6e647a70
0000ac  00      
0000ad  00                DCB      0
0000ae  00                DCB      0
0000af  00                DCB      0
0000b0  6269747a          DCB      "bitzpx",0
0000b4  707800  
0000b7  00                DCB      0
0000b8  616e647a          DCB      "andzpx",0
0000bc  707800  
0000bf  00                DCB      0
0000c0  726f6c7a          DCB      "rolzpx",0
0000c4  707800  
0000c7  00                DCB      0
0000c8  73656300          DCB      "sec",0
0000cc  64656100          DCB      "dea",0
0000d0  72746900          DCB      "rti",0
0000d4  656f7200          DCB      "eor",0
0000d8  656f727a          DCB      "eorzp",0
0000dc  7000    
0000de  00                DCB      0
0000df  00                DCB      0
0000e0  6c73727a          DCB      "lsrzp",0
0000e4  7000    
0000e6  00                DCB      0
0000e7  00                DCB      0
0000e8  70686100          DCB      "pha",0
0000ec  6c737261          DCB      "lsra",0
0000f0  00      
0000f1  00                DCB      0
0000f2  00                DCB      0
0000f3  00                DCB      0
0000f4  6a6d7000          DCB      "jmp",0
0000f8  6c737200          DCB      "lsr",0
0000fc  62766300          DCB      "bvc",0
000100  656f7269          DCB      "eorindzp",0
000104  6e647a70
000108  00      
000109  00                DCB      0
00010a  00                DCB      0
00010b  00                DCB      0
00010c  656f727a          DCB      "eorzpx",0
000110  707800  
000113  00                DCB      0
000114  6c73727a          DCB      "lsrzpx",0
000118  707800  
00011b  00                DCB      0
00011c  636c6900          DCB      "cli",0
000120  70687900          DCB      "phy",0
000124  72747300          DCB      "rts",0
000128  61646300          DCB      "adc",0
00012c  73747a7a          DCB      "stzzp",0
000130  7000    
000132  00                DCB      0
000133  00                DCB      0
000134  6164637a          DCB      "adczp",0
000138  7000    
00013a  00                DCB      0
00013b  00                DCB      0
00013c  726f727a          DCB      "rorzp",0
000140  7000    
000142  00                DCB      0
000143  00                DCB      0
000144  706c6100          DCB      "pla",0
000148  726f7261          DCB      "rora",0
00014c  00      
00014d  00                DCB      0
00014e  00                DCB      0
00014f  00                DCB      0
000150  726f7200          DCB      "ror",0
000154  62767300          DCB      "bvs",0
000158  61646369          DCB      "adcindzp",0
00015c  6e647a70
000160  00      
000161  00                DCB      0
000162  00                DCB      0
000163  00                DCB      0
000164  73747a7a          DCB      "stzzpx",0
000168  707800  
00016b  00                DCB      0
00016c  6164637a          DCB      "adczpx",0
000170  707800  
000173  00                DCB      0
000174  726f727a          DCB      "rorzpx",0
000178  707800  
00017b  00                DCB      0
00017c  73656900          DCB      "sei",0
000180  706c7900          DCB      "ply",0
000184  62726100          DCB      "bra",0
000188  73746100          DCB      "sta",0
00018c  7374797a          DCB      "styzp",0
000190  7000    
000192  00                DCB      0
000193  00                DCB      0
000194  7374617a          DCB      "stazp",0
000198  7000    
00019a  00                DCB      0
00019b  00                DCB      0
00019c  7374787a          DCB      "stxzp",0
0001a0  7000    
0001a2  00                DCB      0
0001a3  00                DCB      0
0001a4  64657900          DCB      "dey",0
0001a8  74786100          DCB      "txa",0
0001ac  73747900          DCB      "sty",0
0001b0  73747800          DCB      "stx",0
0001b4  62636300          DCB      "bcc",0
0001b8  73746169          DCB      "staindzp",0
0001bc  6e647a70
0001c0  00      
0001c1  00                DCB      0
0001c2  00                DCB      0
0001c3  00                DCB      0
0001c4  7374797a          DCB      "styzpx",0
0001c8  707800  
0001cb  00                DCB      0
0001cc  7374617a          DCB      "stazpx",0
0001d0  707800  
0001d3  00                DCB      0
0001d4  7374787a          DCB      "stxzpy",0
0001d8  707900  
0001db  00                DCB      0
0001dc  74796100          DCB      "tya",0
0001e0  74787300          DCB      "txs",0
0001e4  73747a00          DCB      "stz",0
0001e8  6c647900          DCB      "ldy",0
0001ec  6c646100          DCB      "lda",0
0001f0  6c647800          DCB      "ldx",0
0001f4  6c64797a          DCB      "ldyzp",0
0001f8  7000    
0001fa  00                DCB      0
0001fb  00                DCB      0
0001fc  6c64617a          DCB      "ldazp",0
000200  7000    
000202  00                DCB      0
000203  00                DCB      0
000204  6c64787a          DCB      "ldxzp",0
000208  7000    
00020a  00                DCB      0
00020b  00                DCB      0
00020c  74617900          DCB      "tay",0
000210  74617800          DCB      "tax",0
000214  62637300          DCB      "bcs",0
000218  6c646169          DCB      "ldaindzp",0
00021c  6e647a70
000220  00      
000221  00                DCB      0
000222  00                DCB      0
000223  00                DCB      0
000224  6c64797a          DCB      "ldyzpx",0
000228  707800  
00022b  00                DCB      0
00022c  6c64617a          DCB      "ldazpx",0
000230  707800  
000233  00                DCB      0
000234  6c64787a          DCB      "ldxzpy",0
000238  707900  
00023b  00                DCB      0
00023c  636c7600          DCB      "clv",0
000240  74737800          DCB      "tsx",0
000244  63707900          DCB      "cpy",0
000248  636d7000          DCB      "cmp",0
00024c  6370797a          DCB      "cpyzp",0
000250  7000    
000252  00                DCB      0
000253  00                DCB      0
000254  636d707a          DCB      "cmpzp",0
000258  7000    
00025a  00                DCB      0
00025b  00                DCB      0
00025c  6465637a          DCB      "deczp",0
000260  7000    
000262  00                DCB      0
000263  00                DCB      0
000264  696e7900          DCB      "iny",0
000268  64657800          DCB      "dex",0
00026c  64656300          DCB      "dec",0
000270  626e6500          DCB      "bne",0
000274  636d7069          DCB      "cmpindzp",0
000278  6e647a70
00027c  00      
00027d  00                DCB      0
00027e  00                DCB      0
00027f  00                DCB      0
000280  636d707a          DCB      "cmpzpx",0
000284  707800  
000287  00                DCB      0
000288  6465637a          DCB      "deczpx",0
00028c  707800  
00028f  00                DCB      0
000290  636c6400          DCB      "cld",0
000294  70687800          DCB      "phx",0
000298  63707800          DCB      "cpx",0
00029c  73626300          DCB      "sbc",0
0002a0  6370787a          DCB      "cpxzp",0
0002a4  7000    
0002a6  00                DCB      0
0002a7  00                DCB      0
0002a8  7362637a          DCB      "sbczp",0
0002ac  7000    
0002ae  00                DCB      0
0002af  00                DCB      0
0002b0  696e637a          DCB      "inczp",0
0002b4  7000    
0002b6  00                DCB      0
0002b7  00                DCB      0
0002b8  696e7800          DCB      "inx",0
0002bc  696e6300          DCB      "inc",0
0002c0  62657100          DCB      "beq",0
0002c4  73626369          DCB      "sbcindzp",0
0002c8  6e647a70
0002cc  00      
0002cd  00                DCB      0
0002ce  00                DCB      0
0002cf  00                DCB      0
0002d0  7362637a          DCB      "sbczpx",0
0002d4  707800  
0002d7  00                DCB      0
0002d8  696e637a          DCB      "inczpx",0
0002dc  707800  
0002df  00                DCB      0
0002e0  73656400          DCB      "sed",0
0002e4  706c7800          DCB      "plx",0

                          AREA ||.data||, DATA, ALIGN=2

                  NMI_Flag
000000  00                DCB      0x00
                  IRQ_Flag
000001  00                DCB      0x00
                  A
000002  00                DCB      0x00
                  X
000003  00                DCB      0x00
                  Y
000004  00                DCB      0x00
                  P
000005  00                DCB      0x00
                  S
000006  00                DCB      0x00
                  opcode
000007  00                DCB      0x00
                  operand
000008  00                DCB      0x00
                  joypad_read_state
000009  0000              DCB      0x00,0x00
                  joypad_strobe
00000b  00                DCB      0x00
00000c  0000              DCB      0x00,0x00
                  ||PC||
00000e  0000              DCB      0x00,0x00
                  operand16
000010  00000000          DCB      0x00,0x00,0x00,0x00
                  joypad_state
                          DCD      0x00000000
                  joypad_A
                          DCD      0x00001000
                  joypad_B
                          DCD      0x00000800
                  joypad_U
                          DCD      0x00000002
                  joypad_D
                          DCD      0x00000008
                  joypad_L
                          DCD      0x00000010
                  joypad_R
                          DCD      0x00000004
                  joypad_SEL
                          DCD      0x00000040
                  joypad_START
                          DCD      0x00000200
                  prg_rombank0
                          DCD      0x00000000
                  prg_rombank1
                          DCD      0x00000000
                  cpu_clockticks
                          DCD      0x00000000
                  opcode_names
                          DCD      ||.conststring||
                          DCD      ||.conststring||+0x4
                          DCD      ||.conststring||+0x8
                          DCD      ||.conststring||+0x8
                          DCD      ||.conststring||+0xc
                          DCD      ||.conststring||+0x14
                          DCD      ||.conststring||+0x1c
                          DCD      ||.conststring||+0x8
                          DCD      ||.conststring||+0x24
                          DCD      ||.conststring||+0x4
                          DCD      ||.conststring||+0x28
                          DCD      ||.conststring||+0x4
                          DCD      ||.conststring||+0x30
                          DCD      ||.conststring||+0x4
                          DCD      ||.conststring||+0x34
                          DCD      ||.conststring||+0x8
                          DCD      ||.conststring||+0x38
                          DCD      ||.conststring||+0x4
                          DCD      ||.conststring||+0x3c
                          DCD      ||.conststring||+0x8
                          DCD      ||.conststring||+0x48
                          DCD      ||.conststring||+0x50
                          DCD      ||.conststring||+0x58
                          DCD      ||.conststring||+0x8
                          DCD      ||.conststring||+0x60
                          DCD      ||.conststring||+0x4
                          DCD      ||.conststring||+0x64
                          DCD      ||.conststring||+0x8
                          DCD      ||.conststring||+0x68
                          DCD      ||.conststring||+0x4
                          DCD      ||.conststring||+0x34
                          DCD      ||.conststring||+0x8
                          DCD      ||.conststring||+0x6c
                          DCD      ||.conststring||+0x70
                          DCD      ||.conststring||+0x8
                          DCD      ||.conststring||+0x8
                          DCD      ||.conststring||+0x74
                          DCD      ||.conststring||+0x7c
                          DCD      ||.conststring||+0x84
                          DCD      ||.conststring||+0x8
                          DCD      ||.conststring||+0x8c
                          DCD      ||.conststring||+0x70
                          DCD      ||.conststring||+0x90
                          DCD      ||.conststring||+0x8
                          DCD      ||.conststring||+0x98
                          DCD      ||.conststring||+0x70
                          DCD      ||.conststring||+0x9c
                          DCD      ||.conststring||+0x8
                          DCD      ||.conststring||+0xa0
                          DCD      ||.conststring||+0x70
                          DCD      ||.conststring||+0xa4
                          DCD      ||.conststring||+0x8
                          DCD      ||.conststring||+0xb0
                          DCD      ||.conststring||+0xb8
                          DCD      ||.conststring||+0xc0
                          DCD      ||.conststring||+0x8
                          DCD      ||.conststring||+0xc8
                          DCD      ||.conststring||+0x70
                          DCD      ||.conststring||+0xcc
                          DCD      ||.conststring||+0x8
                          DCD      ||.conststring||+0x98
                          DCD      ||.conststring||+0x70
                          DCD      ||.conststring||+0x9c
                          DCD      ||.conststring||+0x8
                          DCD      ||.conststring||+0xd0
                          DCD      ||.conststring||+0xd4
                          DCD      ||.conststring||+0x8
                          DCD      ||.conststring||+0x8
                          DCD      ||.conststring||+0x8
                          DCD      ||.conststring||+0xd8
                          DCD      ||.conststring||+0xe0
                          DCD      ||.conststring||+0x8
                          DCD      ||.conststring||+0xe8
                          DCD      ||.conststring||+0xd4
                          DCD      ||.conststring||+0xec
                          DCD      ||.conststring||+0x8
                          DCD      ||.conststring||+0xf4
                          DCD      ||.conststring||+0xd4
                          DCD      ||.conststring||+0xf8
                          DCD      ||.conststring||+0x8
                          DCD      ||.conststring||+0xfc
                          DCD      ||.conststring||+0xd4
                          DCD      ||.conststring||+0x100
                          DCD      ||.conststring||+0x8
                          DCD      ||.conststring||+0x8
                          DCD      ||.conststring||+0x10c
                          DCD      ||.conststring||+0x114
                          DCD      ||.conststring||+0x8
                          DCD      ||.conststring||+0x11c
                          DCD      ||.conststring||+0xd4
                          DCD      ||.conststring||+0x120
                          DCD      ||.conststring||+0x8
                          DCD      ||.conststring||+0x8
                          DCD      ||.conststring||+0xd4
                          DCD      ||.conststring||+0xf8
                          DCD      ||.conststring||+0x8
                          DCD      ||.conststring||+0x124
                          DCD      ||.conststring||+0x128
                          DCD      ||.conststring||+0x8
                          DCD      ||.conststring||+0x8
                          DCD      ||.conststring||+0x12c
                          DCD      ||.conststring||+0x134
                          DCD      ||.conststring||+0x13c
                          DCD      ||.conststring||+0x8
                          DCD      ||.conststring||+0x144
                          DCD      ||.conststring||+0x128
                          DCD      ||.conststring||+0x148
                          DCD      ||.conststring||+0x8
                          DCD      ||.conststring||+0xf4
                          DCD      ||.conststring||+0x128
                          DCD      ||.conststring||+0x150
                          DCD      ||.conststring||+0x8
                          DCD      ||.conststring||+0x154
                          DCD      ||.conststring||+0x128
                          DCD      ||.conststring||+0x158
                          DCD      ||.conststring||+0x8
                          DCD      ||.conststring||+0x164
                          DCD      ||.conststring||+0x16c
                          DCD      ||.conststring||+0x174
                          DCD      ||.conststring||+0x8
                          DCD      ||.conststring||+0x17c
                          DCD      ||.conststring||+0x128
                          DCD      ||.conststring||+0x180
                          DCD      ||.conststring||+0x8
                          DCD      ||.conststring||+0xf4
                          DCD      ||.conststring||+0x128
                          DCD      ||.conststring||+0x150
                          DCD      ||.conststring||+0x8
                          DCD      ||.conststring||+0x184
                          DCD      ||.conststring||+0x188
                          DCD      ||.conststring||+0x8
                          DCD      ||.conststring||+0x8
                          DCD      ||.conststring||+0x18c
                          DCD      ||.conststring||+0x194
                          DCD      ||.conststring||+0x19c
                          DCD      ||.conststring||+0x8
                          DCD      ||.conststring||+0x1a4
                          DCD      ||.conststring||+0x98
                          DCD      ||.conststring||+0x1a8
                          DCD      ||.conststring||+0x8
                          DCD      ||.conststring||+0x1ac
                          DCD      ||.conststring||+0x188
                          DCD      ||.conststring||+0x1b0
                          DCD      ||.conststring||+0x8
                          DCD      ||.conststring||+0x1b4
                          DCD      ||.conststring||+0x188
                          DCD      ||.conststring||+0x1b8
                          DCD      ||.conststring||+0x8
                          DCD      ||.conststring||+0x1c4
                          DCD      ||.conststring||+0x1cc
                          DCD      ||.conststring||+0x1d4
                          DCD      ||.conststring||+0x8
                          DCD      ||.conststring||+0x1dc
                          DCD      ||.conststring||+0x188
                          DCD      ||.conststring||+0x1e0
                          DCD      ||.conststring||+0x8
                          DCD      ||.conststring||+0x1e4
                          DCD      ||.conststring||+0x188
                          DCD      ||.conststring||+0x1e4
                          DCD      ||.conststring||+0x8
                          DCD      ||.conststring||+0x1e8
                          DCD      ||.conststring||+0x1ec
                          DCD      ||.conststring||+0x1f0
                          DCD      ||.conststring||+0x8
                          DCD      ||.conststring||+0x1f4
                          DCD      ||.conststring||+0x1fc
                          DCD      ||.conststring||+0x204
                          DCD      ||.conststring||+0x8
                          DCD      ||.conststring||+0x20c
                          DCD      ||.conststring||+0x1ec
                          DCD      ||.conststring||+0x210
                          DCD      ||.conststring||+0x8
                          DCD      ||.conststring||+0x1e8
                          DCD      ||.conststring||+0x1ec
                          DCD      ||.conststring||+0x1f0
                          DCD      ||.conststring||+0x8
                          DCD      ||.conststring||+0x214
                          DCD      ||.conststring||+0x1ec
                          DCD      ||.conststring||+0x218
                          DCD      ||.conststring||+0x8
                          DCD      ||.conststring||+0x224
                          DCD      ||.conststring||+0x22c
                          DCD      ||.conststring||+0x234
                          DCD      ||.conststring||+0x8
                          DCD      ||.conststring||+0x23c
                          DCD      ||.conststring||+0x1ec
                          DCD      ||.conststring||+0x240
                          DCD      ||.conststring||+0x8
                          DCD      ||.conststring||+0x1e8
                          DCD      ||.conststring||+0x1ec
                          DCD      ||.conststring||+0x1f0
                          DCD      ||.conststring||+0x8
                          DCD      ||.conststring||+0x244
                          DCD      ||.conststring||+0x248
                          DCD      ||.conststring||+0x8
                          DCD      ||.conststring||+0x8
                          DCD      ||.conststring||+0x24c
                          DCD      ||.conststring||+0x254
                          DCD      ||.conststring||+0x25c
                          DCD      ||.conststring||+0x8
                          DCD      ||.conststring||+0x264
                          DCD      ||.conststring||+0x248
                          DCD      ||.conststring||+0x268
                          DCD      ||.conststring||+0x8
                          DCD      ||.conststring||+0x244
                          DCD      ||.conststring||+0x248
                          DCD      ||.conststring||+0x26c
                          DCD      ||.conststring||+0x8
                          DCD      ||.conststring||+0x270
                          DCD      ||.conststring||+0x248
                          DCD      ||.conststring||+0x274
                          DCD      ||.conststring||+0x8
                          DCD      ||.conststring||+0x8
                          DCD      ||.conststring||+0x280
                          DCD      ||.conststring||+0x288
                          DCD      ||.conststring||+0x8
                          DCD      ||.conststring||+0x290
                          DCD      ||.conststring||+0x248
                          DCD      ||.conststring||+0x294
                          DCD      ||.conststring||+0x8
                          DCD      ||.conststring||+0x8
                          DCD      ||.conststring||+0x248
                          DCD      ||.conststring||+0x26c
                          DCD      ||.conststring||+0x8
                          DCD      ||.conststring||+0x298
                          DCD      ||.conststring||+0x29c
                          DCD      ||.conststring||+0x8
                          DCD      ||.conststring||+0x8
                          DCD      ||.conststring||+0x2a0
                          DCD      ||.conststring||+0x2a8
                          DCD      ||.conststring||+0x2b0
                          DCD      ||.conststring||+0x8
                          DCD      ||.conststring||+0x2b8
                          DCD      ||.conststring||+0x29c
                          DCD      ||.conststring||+0x8
                          DCD      ||.conststring||+0x8
                          DCD      ||.conststring||+0x298
                          DCD      ||.conststring||+0x29c
                          DCD      ||.conststring||+0x2bc
                          DCD      ||.conststring||+0x8
                          DCD      ||.conststring||+0x2c0
                          DCD      ||.conststring||+0x29c
                          DCD      ||.conststring||+0x2c4
                          DCD      ||.conststring||+0x8
                          DCD      ||.conststring||+0x8
                          DCD      ||.conststring||+0x2d0
                          DCD      ||.conststring||+0x2d8
                          DCD      ||.conststring||+0x8
                          DCD      ||.conststring||+0x2e0
                          DCD      ||.conststring||+0x29c
                          DCD      ||.conststring||+0x2e4
                          DCD      ||.conststring||+0x8
                          DCD      ||.conststring||+0x8
                          DCD      ||.conststring||+0x29c
                          DCD      ||.conststring||+0x2bc
                          DCD      ||.conststring||+0x8

;*** Start embedded assembler ***

#line 1 "..\\Src\\cpu.c"
	AREA ||.rev16_text||, CODE
	THUMB
	EXPORT |__asm___5_cpu_c_7bb21a68____REV16|
#line 388 "../Drivers/CMSIS/Include/cmsis_armcc.h"
|__asm___5_cpu_c_7bb21a68____REV16| PROC
#line 389

 rev16 r0, r0
 bx lr
	ENDP
	AREA ||.revsh_text||, CODE
	THUMB
	EXPORT |__asm___5_cpu_c_7bb21a68____REVSH|
#line 402
|__asm___5_cpu_c_7bb21a68____REVSH| PROC
#line 403

 revsh r0, r0
 bx lr
	ENDP
	AREA ||.rrx_text||, CODE
	THUMB
	EXPORT |__asm___5_cpu_c_7bb21a68____RRX|
#line 587
|__asm___5_cpu_c_7bb21a68____RRX| PROC
#line 588

 rrx r0, r0
 bx lr
	ENDP

;*** End   embedded assembler ***
